Certificate:
    Data:
        Version: 3 (0x2)
        Serial Number: 1 (0x1)
    Signature Algorithm: sha1WithRSAEncryption
        Issuer: C=US, ST=Unset, L=Unset, O=Unset, CN=www.example.com
        Validity
            Not Before: Oct 11 19:04:23 2014 GMT
            Not After : Oct  8 19:04:23 2024 GMT
        Subject: C=US, ST=Unset, O=Unset, CN=www.example.com
        Subject Public Key Info:
            Public Key Algorithm: rsaEncryption
                Public-Key: (2048 bit)
                Modulus:
                    00:b4:f7:05:a8:b5:f5:34:c5:43:9c:2f:ab:c5:bc:
                    37:65:ce:d1:d8:48:08:e3:2c:66:56:90:c8:5b:99:
                    5c:10:4c:5f:71:5f:08:4b:dc:fe:f9:df:5b:ae:93:
                    a0:43:6e:09:db:71:22:16:b6:90:bc:9f:6b:18:33:
                    91:5e:e2:78:d6:73:e3:bf:39:88:50:19:63:19:39:
                    65:12:21:1f:72:ea:f0:03:4b:49:25:18:5d:df:a5:
                    1a:9f:e0:d4:53:ff:ab:de:ad:74:07:90:48:a3:4a:
                    a0:51:02:b3:72:a6:02:d1:2a:bf:e5:bd:df:2a:bf:
                    0c:0f:0c:6f:e1:4f:af:c2:f3:25:2d:fb:8e:b7:9a:
                    97:b8:90:20:8a:e7:55:7f:6d:30:92:e2:f5:a0:3c:
                    43:f4:45:1e:7c:50:8a:ec:f5:31:c5:78:e1:bf:c2:
                    e3:53:cf:d9:31:a7:14:34:12:34:67:46:ce:38:20:
                    5f:fb:fc:af:35:de:37:98:23:51:23:66:65:bf:21:
                    ae:43:6e:54:c3:72:98:4c:4b:8c:be:25:ae:ac:67:
                    59:a6:e5:24:50:61:75:67:4b:5f:af:e1:ac:07:ab:
                    70:65:11:ea:87:08:94:0c:38:d4:8a:fe:21:f4:05:
                    65:a0:4a:89:38:aa:41:b8:a5:36:4b:4a:ac:c3:60:
                    7c:f3
                Exponent: 65537 (0x10001)
        X509v3 extensions:
            X509v3 Basic Constraints: 
                CA:FALSE
            X509v3 Subject Key Identifier: 
                E2:A4:56:58:1F:4F:F8:A3:68:82:EB:EB:3B:52:F3:05:78:F4:97:9F
            X509v3 Authority Key Identifier: 
                keyid:DF:37:25:C6:99:FD:49:A9:C7:F0:55:E5:73:96:C3:AF:EF:03:CB:A6

    Signature Algorithm: sha1WithRSAEncryption
         ae:be:9c:bc:e6:c7:ab:2e:f5:f2:b3:15:a8:b3:55:ae:50:54:
         53:c5:62:fd:42:56:0d:26:8f:4f:6c:ac:fc:67:0f:4f:29:fd:
         47:1c:fb:c7:fb:6a:16:7d:9b:93:59:55:1b:ac:14:68:9d:a1:
         76:82:57:4e:1e:50:e9:0a:4a:c2:a1:d8:1d:5f:35:10:0d:fe:
         0b:32:d3:55:84:e9:08:c7:99:24:32:c9:a3:19:24:09:5b:5c:
         8a:a9:67:66:4c:19:f5:a6:72:39:f4:4b:b6:1a:e6:36:56:58:
         c1:7c:2e:71:92:2c:96:44:e8:d8:cd:f7:37:5e:c0:90:b3:3e:
         3f:c1:57:47:a2:45:72:69:5d:81:65:1d:6a:2b:c7:dd:2a:d6:
         54:63:80:72:d0:35:84:7b:f9:c4:e6:d7:00:19:93:43:a6:9a:
         9a:b4:d4:06:96:e7:aa:25:1c:d8:cf:c6:b9:23:57:62:41:72:
         ec:c5:50:e6:a1:2f:b9:53:95:c4:1c:cd:ba:e5:19:8a:87:22:
         9d:98:78:22:4d:89:dc:ad:8b:4c:b7:58:af:a8:4b:c3:bf:df:
         9e:0b:a4:b4:15:2a:2d:7d:42:a4:76:3b:c4:19:b4:0a:ce:13:
         8a:9b:78:24:8c:3d:f9:fc:aa:5f:f6:84:b8:a3:a5:4d:de:5e:
         ec:23:ad:cc
-----BEGIN CERTIFICATE-----
MIIDZjCCAk6gAwIBAgIBATANBgkqhkiG9w0BAQUFADBXMQswCQYDVQQGEwJVUzEO
MAwGA1UECAwFVW5zZXQxDjAMBgNVBAcMBVVuc2V0MQ4wDAYDVQQKDAVVbnNldDEY
MBYGA1UEAwwPd3d3LmV4YW1wbGUuY29tMB4XDTE0MTAxMTE5MDQyM1oXDTI0MTAw
ODE5MDQyM1owRzELMAkGA1UEBhMCVVMxDjAMBgNVBAgMBVVuc2V0MQ4wDAYDVQQK
DAVVbnNldDEYMBYGA1UEAwwPd3d3LmV4YW1wbGUuY29tMIIBIjANBgkqhkiG9w0B
AQEFAAOCAQ8AMIIBCgKCAQEAtPcFqLX1NMVDnC+rxbw3Zc7R2EgI4yxmVpDIW5lc
EExfcV8IS9z++d9brpOgQ24J23EiFraQvJ9rGDORXuJ41nPjvzmIUBljGTllEiEf
curwA0tJJRhd36Uan+DUU/+r3q10B5BIo0qgUQKzcqYC0Sq/5b3fKr8MDwxv4U+v
wvMlLfuOt5qXuJAgiudVf20wkuL1oDxD9EUefFCK7PUxxXjhv8LjU8/ZMacUNBI0
Z0bOOCBf+/yvNd43mCNRI2ZlvyGuQ25Uw3KYTEuMviWurGdZpuUkUGF1Z0tfr+Gs
B6twZRHqhwiUDDjUiv4h9AVloEqJOKpBuKU2S0qsw2B88wIDAQABo00wSzAJBgNV
HRMEAjAAMB0GA1UdDgQWBBTipFZYH0/4o2iC6+s7UvMFePSXnzAfBgNVHSMEGDAW
gBTfNyXGmf1JqcfwVeVzlsOv7wPLpjANBgkqhkiG9w0BAQUFAAOCAQEArr6cvObH
qy718rMVqLNVrlBUU8Vi/UJWDSaPT2ys/GcPTyn9Rxz7x/tqFn2bk1lVG6wUaJ2h
doJXTh5Q6QpKwqHYHV81EA3+CzLTVYTpCMeZJDLJoxkkCVtciqlnZkwZ9aZyOfRL
thrmNlZYwXwucZIslkTo2M33N17AkLM+P8FXR6JFcmldgWUdaivH3SrWVGOActA1
hHv5xObXABmTQ6aamrTUBpbnqiUc2M/GuSNXYkFy7MVQ5qEvuVOVxBzNuuUZioci
nZh4Ik2J3K2LTLdYr6hLw7/fnguktBUqLX1CpHY7xBm0Cs4Tipt4JIw9+fyqX/aE
uKOlTd5e7COtzA==
-----END CERTIFICATE-----
