Certificate:
    Data:
        Version: 3 (0x2)
        Serial Number: 1 (0x1)
    Signature Algorithm: sha1WithRSAEncryption
        Issuer: C=US, ST=Unset, L=Unset, O=Unset, CN=www.example.com
        Validity
            Not Before: Oct 11 20:11:04 2014 GMT
            Not After : Oct  8 20:11:04 2024 GMT
        Subject: C=US, ST=Unset, O=Unset, CN=www.example.com
        Subject Public Key Info:
            Public Key Algorithm: rsaEncryption
                Public-Key: (2048 bit)
                Modulus:
                    00:a9:b6:84:3e:8c:25:de:e7:ad:01:35:e8:a4:80:
                    35:c6:3f:f5:d8:3c:e2:8b:3c:2c:eb:4b:ad:2f:71:
                    d7:ff:76:5e:6e:0f:d2:2f:23:56:61:d3:25:9e:8f:
                    fc:58:98:3d:93:f4:fe:d5:02:2b:76:10:f2:a3:e4:
                    05:f6:87:6e:aa:2d:96:c8:4e:56:a8:b0:e1:1b:f9:
                    c8:08:c4:6b:5a:3e:bd:81:16:4d:25:66:54:e4:12:
                    f2:dc:ed:3e:a4:8d:62:4b:54:c2:a5:5a:0d:5e:d4:
                    a2:f5:5f:34:5a:60:bc:14:59:11:7d:56:04:64:2b:
                    66:f7:c9:9e:4c:eb:44:1a:f5:86:73:72:a0:a5:2c:
                    3f:10:e0:74:8c:12:c5:48:06:62:9e:24:93:dc:58:
                    5c:13:fb:d2:87:82:63:2a:60:a6:05:17:f4:a8:dd:
                    b7:23:c2:f1:c9:8c:a1:e6:ab:55:1b:58:33:2b:ed:
                    9b:67:d5:40:eb:c1:77:0b:43:5f:04:e0:7b:fc:f4:
                    94:02:ce:7d:81:6b:18:ef:76:3a:37:b2:fc:49:50:
                    89:de:cb:6f:ee:87:95:4a:86:8e:71:b8:8a:de:ae:
                    e7:d0:23:9a:a8:30:74:58:f2:a4:54:ac:f5:ce:5c:
                    6b:47:3e:50:85:d9:be:d0:63:3a:52:6a:d7:9f:7e:
                    7e:77
                Exponent: 65537 (0x10001)
        X509v3 extensions:
            X509v3 Basic Constraints: 
                CA:FALSE
            X509v3 Subject Key Identifier: 
                BD:DF:D7:8C:09:33:E4:DE:48:7D:3F:EC:55:BD:E0:56:3B:3E:99:5A
            X509v3 Authority Key Identifier: 
                keyid:92:14:4E:76:B4:62:72:D3:87:2B:95:BA:F3:47:19:99:A5:71:1C:E5

    Signature Algorithm: sha1WithRSAEncryption
         4b:fb:34:cb:2a:ba:e8:89:a4:97:87:42:0a:de:59:0d:e4:77:
         8d:54:0b:eb:f0:b3:e3:0e:2b:e4:ab:db:ee:6e:7a:89:7c:cc:
         51:58:d4:46:c2:2f:d0:5b:80:9c:fa:75:2c:65:b8:b4:9c:37:
         ff:a8:32:ff:dd:d9:6e:35:ba:a1:6e:20:f4:19:34:93:2a:b1:
         de:c8:21:a5:00:a2:6a:73:f6:a5:7b:9c:16:d1:ef:fa:4a:33:
         f8:d6:50:f7:49:ac:b4:cb:bd:2d:86:9e:13:1b:ce:06:33:03:
         b4:65:8f:08:61:d8:ca:5d:c8:d0:26:75:3b:77:49:97:50:c2:
         27:22:c0:76:bf:99:d2:ea:d0:3d:91:6a:91:8e:cb:a9:0b:7b:
         d5:56:c1:20:14:ea:ff:c6:8c:32:6d:ba:51:d2:38:b1:38:d3:
         c8:8b:1a:a2:03:53:79:b5:fa:88:f0:3e:ee:d5:a4:f0:38:04:
         3e:e3:35:52:01:35:1c:63:82:83:dd:a5:b5:c9:67:f9:27:7a:
         0d:41:4f:7d:06:d0:c7:06:18:71:ce:62:b2:4a:72:3a:de:5a:
         9d:89:76:b5:87:da:da:50:aa:50:e1:76:7c:38:5e:60:85:35:
         c8:bb:02:06:e3:1f:29:09:d0:97:11:51:1f:17:a9:70:0d:2a:
         fc:ea:c1:c5
-----BEGIN CERTIFICATE-----
MIIDZjCCAk6gAwIBAgIBATANBgkqhkiG9w0BAQUFADBXMQswCQYDVQQGEwJVUzEO
MAwGA1UECAwFVW5zZXQxDjAMBgNVBAcMBVVuc2V0MQ4wDAYDVQQKDAVVbnNldDEY
MBYGA1UEAwwPd3d3LmV4YW1wbGUuY29tMB4XDTE0MTAxMTIwMTEwNFoXDTI0MTAw
ODIwMTEwNFowRzELMAkGA1UEBhMCVVMxDjAMBgNVBAgMBVVuc2V0MQ4wDAYDVQQK
DAVVbnNldDEYMBYGA1UEAwwPd3d3LmV4YW1wbGUuY29tMIIBIjANBgkqhkiG9w0B
AQEFAAOCAQ8AMIIBCgKCAQEAqbaEPowl3uetATXopIA1xj/12Dziizws60utL3HX
/3Zebg/SLyNWYdMlno/8WJg9k/T+1QIrdhDyo+QF9oduqi2WyE5WqLDhG/nICMRr
Wj69gRZNJWZU5BLy3O0+pI1iS1TCpVoNXtSi9V80WmC8FFkRfVYEZCtm98meTOtE
GvWGc3KgpSw/EOB0jBLFSAZiniST3FhcE/vSh4JjKmCmBRf0qN23I8LxyYyh5qtV
G1gzK+2bZ9VA68F3C0NfBOB7/PSUAs59gWsY73Y6N7L8SVCJ3stv7oeVSoaOcbiK
3q7n0COaqDB0WPKkVKz1zlxrRz5Qhdm+0GM6UmrXn35+dwIDAQABo00wSzAJBgNV
HRMEAjAAMB0GA1UdDgQWBBS939eMCTPk3kh9P+xVveBWOz6ZWjAfBgNVHSMEGDAW
gBSSFE52tGJy04crlbrzRxmZpXEc5TANBgkqhkiG9w0BAQUFAAOCAQEAS/s0yyq6
6Imkl4dCCt5ZDeR3jVQL6/Cz4w4r5Kvb7m56iXzMUVjURsIv0FuAnPp1LGW4tJw3
/6gy/93ZbjW6oW4g9Bk0kyqx3sghpQCianP2pXucFtHv+koz+NZQ90mstMu9LYae
ExvOBjMDtGWPCGHYyl3I0CZ1O3dJl1DCJyLAdr+Z0urQPZFqkY7LqQt71VbBIBTq
/8aMMm26UdI4sTjTyIsaogNTebX6iPA+7tWk8DgEPuM1UgE1HGOCg92ltcln+Sd6
DUFPfQbQxwYYcc5iskpyOt5anYl2tYfa2lCqUOF2fDheYIU1yLsCBuMfKQnQlxFR
HxepcA0q/OrBxQ==
-----END CERTIFICATE-----
