Certificate:
    Data:
        Version: 3 (0x2)
        Serial Number: 1 (0x1)
    Signature Algorithm: sha256WithRSAEncryption
        Issuer: C=US, ST=Unset, L=Unset, O=Unset, CN=www.example.com
        Validity
            Not Before: Dec 12 14:29:56 2014 GMT
            Not After : Dec  9 14:29:56 2024 GMT
        Subject: C=US, ST=Unset, O=Unset, CN=www.example.com
        Subject Public Key Info:
            Public Key Algorithm: rsaEncryption
                Public-Key: (2048 bit)
                Modulus:
                    00:ce:4a:41:4b:72:5a:d9:d0:3d:e0:00:19:e5:9e:
                    06:0a:c1:2a:55:4b:79:4a:69:11:57:b7:f5:17:c1:
                    11:51:fe:66:ae:0f:2b:7a:65:5b:0c:41:58:21:12:
                    be:cd:c8:e0:cf:f6:e9:7a:aa:b7:52:99:c0:9d:ac:
                    e3:28:66:f6:28:02:63:ca:e3:5d:cf:97:d7:03:34:
                    f7:42:68:48:6b:34:5d:91:fd:66:0f:73:e2:19:61:
                    ec:3d:a2:1c:a7:20:47:38:12:6c:c7:70:8d:52:4a:
                    4e:95:6c:5a:91:1e:a6:7b:d5:8b:39:27:1c:19:f4:
                    6d:f2:c3:00:db:b7:67:a9:73:4d:f2:2f:fc:f6:2b:
                    78:76:d1:f5:3a:06:d7:5c:2e:aa:09:c9:83:d3:53:
                    6c:fc:26:0b:8c:4c:03:a8:59:d0:69:e2:2e:ce:50:
                    87:bc:ad:53:cc:86:a8:be:8e:4a:a2:c0:af:e8:bc:
                    65:0b:89:e3:20:3c:9f:34:10:92:0a:cb:46:4f:7b:
                    7a:b6:3e:eb:79:5d:ae:8e:cf:d2:91:f8:51:25:54:
                    bb:c4:8a:76:f0:70:b0:06:1f:7b:ff:9c:6d:04:1f:
                    eb:10:ab:b5:f6:05:33:1e:d7:d0:ad:f6:53:24:34:
                    67:9e:ff:a6:51:63:6f:7b:e7:af:05:75:28:35:66:
                    91:87
                Exponent: 65537 (0x10001)
        X509v3 extensions:
            X509v3 Basic Constraints: 
                CA:FALSE
            X509v3 Subject Key Identifier: 
                7C:8E:90:1E:A3:57:4A:6D:A1:3A:8B:2E:11:AB:E2:D0:28:6C:20:C0
            X509v3 Authority Key Identifier: 
                keyid:7B:A3:CB:1E:20:12:0E:63:F3:F3:A9:C3:1B:28:E0:87:C8:5B:78:B1

    Signature Algorithm: sha256WithRSAEncryption
         c8:90:8b:f6:d1:7c:6e:e3:fe:48:22:91:f2:4e:a1:6b:2f:a2:
         bd:ca:ce:61:97:08:62:2f:c8:49:9e:86:d1:c2:1e:f6:98:4d:
         71:ab:d8:9d:3e:f9:ae:80:be:e7:bc:93:42:ee:12:6e:11:2b:
         48:04:a5:51:2c:59:bb:eb:4f:c8:2f:b2:f3:e3:66:9b:0f:0b:
         71:fc:ca:0f:d8:fb:98:7c:55:1d:fd:20:29:b7:5b:93:83:f1:
         1e:57:ad:95:a4:eb:d5:1a:59:9c:00:66:98:12:5c:b5:f9:0c:
         8d:05:9d:77:42:df:f1:b4:6d:1b:e6:06:40:f1:d3:70:5e:22:
         57:33:03:fb:04:02:95:1b:9f:08:81:51:42:f0:02:14:46:32:
         45:fa:de:81:c4:ac:ed:11:ac:71:1b:59:cf:1a:34:6e:1f:42:
         a4:09:e1:90:e0:b4:b4:13:f7:e8:1f:d0:5c:c4:f7:f7:ec:02:
         b7:2d:e3:e0:0c:ab:94:ed:65:9a:05:45:40:d4:7c:e7:b8:fb:
         fa:de:7d:18:7e:ac:ab:11:83:d1:8a:0c:69:97:d0:9a:be:e8:
         50:69:7a:ef:81:8c:1a:ff:14:75:8a:16:d8:5a:42:e9:3e:93:
         b9:e7:6b:9a:06:d0:70:06:2e:81:3c:83:6e:3c:14:89:47:32:
         b4:1e:92:0b
-----BEGIN CERTIFICATE-----
MIIDZjCCAk6gAwIBAgIBATANBgkqhkiG9w0BAQsFADBXMQswCQYDVQQGEwJVUzEO
MAwGA1UECAwFVW5zZXQxDjAMBgNVBAcMBVVuc2V0MQ4wDAYDVQQKDAVVbnNldDEY
MBYGA1UEAwwPd3d3LmV4YW1wbGUuY29tMB4XDTE0MTIxMjE0Mjk1NloXDTI0MTIw
OTE0Mjk1NlowRzELMAkGA1UEBhMCVVMxDjAMBgNVBAgMBVVuc2V0MQ4wDAYDVQQK
DAVVbnNldDEYMBYGA1UEAwwPd3d3LmV4YW1wbGUuY29tMIIBIjANBgkqhkiG9w0B
AQEFAAOCAQ8AMIIBCgKCAQEAzkpBS3Ja2dA94AAZ5Z4GCsEqVUt5SmkRV7f1F8ER
Uf5mrg8remVbDEFYIRK+zcjgz/bpeqq3UpnAnazjKGb2KAJjyuNdz5fXAzT3QmhI
azRdkf1mD3PiGWHsPaIcpyBHOBJsx3CNUkpOlWxakR6me9WLOSccGfRt8sMA27dn
qXNN8i/89it4dtH1OgbXXC6qCcmD01Ns/CYLjEwDqFnQaeIuzlCHvK1TzIaovo5K
osCv6LxlC4njIDyfNBCSCstGT3t6tj7reV2ujs/SkfhRJVS7xIp28HCwBh97/5xt
BB/rEKu19gUzHtfQrfZTJDRnnv+mUWNve+evBXUoNWaRhwIDAQABo00wSzAJBgNV
HRMEAjAAMB0GA1UdDgQWBBR8jpAeo1dKbaE6iy4Rq+LQKGwgwDAfBgNVHSMEGDAW
gBR7o8seIBIOY/PzqcMbKOCHyFt4sTANBgkqhkiG9w0BAQsFAAOCAQEAyJCL9tF8
buP+SCKR8k6hay+ivcrOYZcIYi/ISZ6G0cIe9phNcavYnT75roC+57yTQu4SbhEr
SASlUSxZu+tPyC+y8+Nmmw8LcfzKD9j7mHxVHf0gKbdbk4PxHletlaTr1RpZnABm
mBJctfkMjQWdd0Lf8bRtG+YGQPHTcF4iVzMD+wQClRufCIFRQvACFEYyRfregcSs
7RGscRtZzxo0bh9CpAnhkOC0tBP36B/QXMT39+wCty3j4AyrlO1lmgVFQNR857j7
+t59GH6sqxGD0YoMaZfQmr7oUGl674GMGv8UdYoW2FpC6T6TuedrmgbQcAYugTyD
bjwUiUcytB6SCw==
-----END CERTIFICATE-----
