Certificate:
    Data:
        Version: 3 (0x2)
        Serial Number: 1 (0x1)
    Signature Algorithm: sha256WithRSAEncryption
        Issuer: C=US, ST=Unset, L=Unset, O=Unset, CN=www.example.com
        Validity
            Not Before: Nov 26 02:13:25 2014 GMT
            Not After : Nov 23 02:13:25 2024 GMT
        Subject: C=US, ST=Unset, O=Unset, CN=www.example.com
        Subject Public Key Info:
            Public Key Algorithm: rsaEncryption
                Public-Key: (2048 bit)
                Modulus:
                    00:ea:4e:4c:d1:40:6c:75:52:f2:5a:ee:47:f8:e3:
                    e6:ab:27:35:a6:19:85:56:8a:ac:41:16:2f:8a:ee:
                    7f:a7:cc:44:d7:b0:13:aa:f8:12:60:5c:c3:61:5c:
                    37:4c:41:e1:97:5e:dc:4a:f1:07:f3:8b:a5:d4:21:
                    8c:4d:70:45:d2:3a:84:bd:49:fb:a1:fc:bf:8b:7b:
                    8c:e3:3c:87:b1:1a:0c:d6:fd:7c:12:1d:c9:39:47:
                    8e:69:c0:95:bc:c5:35:db:57:fd:d7:b2:f1:e4:b1:
                    53:22:0c:a3:a4:16:82:63:52:cf:2b:ff:dc:a1:2a:
                    d0:07:b5:6d:55:75:83:b1:02:f7:29:93:ae:7e:69:
                    d9:09:d0:cd:d5:01:fc:17:b5:ac:99:34:e1:74:b4:
                    41:17:5f:eb:ac:ab:af:50:96:72:53:f8:7d:5f:56:
                    1c:81:de:be:d3:d7:59:3d:a3:6d:fd:d4:52:44:0a:
                    34:a3:34:e1:d6:8f:5a:e2:77:1e:83:1a:ce:2f:31:
                    28:36:2a:e0:d2:bf:8d:9c:90:8a:92:71:02:f9:0e:
                    ea:49:46:83:03:5d:a8:59:70:3a:e5:b7:64:a5:0b:
                    1f:4d:a0:64:5f:a9:0e:bf:55:27:5b:7a:27:11:1e:
                    5e:84:a5:1b:88:60:b0:ad:ef:42:92:19:f0:78:ae:
                    c3:2d
                Exponent: 65537 (0x10001)
        X509v3 extensions:
            X509v3 Basic Constraints: 
                CA:FALSE
            X509v3 Subject Key Identifier: 
                85:6F:5C:DA:1D:25:84:4D:63:2C:70:D0:7E:4D:70:4E:6B:95:65:8B
            X509v3 Authority Key Identifier: 
                keyid:3E:D5:7A:7B:6D:96:C5:67:9B:06:9A:94:49:5E:C3:49:1C:D5:78:BD

    Signature Algorithm: sha256WithRSAEncryption
         82:4c:a1:3c:b8:d7:6d:fb:32:f3:c5:77:63:f3:1e:b0:e2:02:
         1f:29:a0:14:09:51:25:03:6d:2b:0d:67:e9:cb:22:37:e3:9d:
         79:14:c1:82:d1:88:45:79:79:1d:d9:44:da:58:f1:f9:d0:ac:
         76:a4:f1:c6:de:60:a3:7b:c3:31:50:7a:9b:4f:b0:2a:5e:ea:
         d6:87:e6:bc:f7:a4:3f:e6:be:6f:a3:4f:18:b6:13:ff:90:8b:
         23:6b:e5:a3:de:45:f2:77:8f:7e:7f:f3:19:e2:1c:1d:3d:fe:
         92:0f:11:22:2e:b8:8e:60:dc:fc:72:81:b1:f5:6d:5e:85:15:
         9f:45:24:ef:e0:23:f9:ca:52:88:fb:ba:c1:03:43:2c:bb:4a:
         8d:f1:4d:2a:d4:6e:05:b6:ef:51:6c:e6:cc:f4:90:2e:e2:99:
         bf:e7:ac:5a:51:d7:57:6a:f8:e8:86:6a:20:e3:b2:a4:4e:a1:
         5e:ef:3d:90:37:b5:2a:c8:f6:7e:67:83:60:05:c6:ac:1a:c0:
         78:21:04:09:87:5f:f3:cc:32:2f:b5:ae:c9:20:9a:9f:2a:06:
         a9:2a:87:17:66:f6:5b:41:b9:50:c9:10:8e:09:ee:65:a1:2a:
         9f:99:cc:d2:eb:cc:57:37:49:e5:13:75:70:10:5c:66:14:bc:
         39:7f:39:11
-----BEGIN CERTIFICATE-----
MIIDZjCCAk6gAwIBAgIBATANBgkqhkiG9w0BAQsFADBXMQswCQYDVQQGEwJVUzEO
MAwGA1UECAwFVW5zZXQxDjAMBgNVBAcMBVVuc2V0MQ4wDAYDVQQKDAVVbnNldDEY
MBYGA1UEAwwPd3d3LmV4YW1wbGUuY29tMB4XDTE0MTEyNjAyMTMyNVoXDTI0MTEy
MzAyMTMyNVowRzELMAkGA1UEBhMCVVMxDjAMBgNVBAgMBVVuc2V0MQ4wDAYDVQQK
DAVVbnNldDEYMBYGA1UEAwwPd3d3LmV4YW1wbGUuY29tMIIBIjANBgkqhkiG9w0B
AQEFAAOCAQ8AMIIBCgKCAQEA6k5M0UBsdVLyWu5H+OPmqyc1phmFVoqsQRYviu5/
p8xE17ATqvgSYFzDYVw3TEHhl17cSvEH84ul1CGMTXBF0jqEvUn7ofy/i3uM4zyH
sRoM1v18Eh3JOUeOacCVvMU121f917Lx5LFTIgyjpBaCY1LPK//coSrQB7VtVXWD
sQL3KZOufmnZCdDN1QH8F7WsmTThdLRBF1/rrKuvUJZyU/h9X1Ycgd6+09dZPaNt
/dRSRAo0ozTh1o9a4ncegxrOLzEoNirg0r+NnJCKknEC+Q7qSUaDA12oWXA65bdk
pQsfTaBkX6kOv1UnW3onER5ehKUbiGCwre9CkhnweK7DLQIDAQABo00wSzAJBgNV
HRMEAjAAMB0GA1UdDgQWBBSFb1zaHSWETWMscNB+TXBOa5VlizAfBgNVHSMEGDAW
gBQ+1Xp7bZbFZ5sGmpRJXsNJHNV4vTANBgkqhkiG9w0BAQsFAAOCAQEAgkyhPLjX
bfsy88V3Y/MesOICHymgFAlRJQNtKw1n6csiN+OdeRTBgtGIRXl5HdlE2ljx+dCs
dqTxxt5go3vDMVB6m0+wKl7q1ofmvPekP+a+b6NPGLYT/5CLI2vlo95F8nePfn/z
GeIcHT3+kg8RIi64jmDc/HKBsfVtXoUVn0Uk7+Aj+cpSiPu6wQNDLLtKjfFNKtRu
BbbvUWzmzPSQLuKZv+esWlHXV2r46IZqIOOypE6hXu89kDe1Ksj2fmeDYAXGrBrA
eCEECYdf88wyL7WuySCanyoGqSqHF2b2W0G5UMkQjgnuZaEqn5nM0uvMVzdJ5RN1
cBBcZhS8OX85EQ==
-----END CERTIFICATE-----
