Certificate:
    Data:
        Version: 3 (0x2)
        Serial Number: 1 (0x1)
    Signature Algorithm: sha256WithRSAEncryption
        Issuer: C=US, ST=Unset, L=Unset, O=Unset, CN=www.example.com
        Validity
            Not Before: Nov 26 06:58:48 2014 GMT
            Not After : Nov 23 06:58:48 2024 GMT
        Subject: C=US, ST=Unset, O=Unset, CN=www.example.com
        Subject Public Key Info:
            Public Key Algorithm: rsaEncryption
                Public-Key: (2048 bit)
                Modulus:
                    00:cd:0f:2e:2e:72:75:95:0a:4d:ed:cb:12:b6:84:
                    b3:82:f7:1d:b5:df:f9:09:11:b1:23:51:7d:ca:bf:
                    25:ad:24:0a:14:d5:43:4e:11:d7:59:df:17:8d:b4:
                    c4:3c:1c:eb:e3:0d:21:21:ed:a1:8d:72:2e:f4:d3:
                    1e:9d:4f:2c:78:b6:18:c1:a8:e8:2d:d7:86:d9:88:
                    10:d6:d8:d4:5d:78:35:e2:7f:79:57:96:2a:e1:a6:
                    a4:44:9a:15:81:57:b8:9d:9d:3e:fa:84:eb:6a:4a:
                    aa:1a:4e:fa:1d:e0:9b:97:9b:3b:ff:4a:47:0b:09:
                    cb:55:71:8a:55:c3:06:72:a6:b3:b1:be:9c:50:ca:
                    bf:d7:21:8a:05:70:86:c8:d1:4e:31:4a:3d:7c:a0:
                    6d:60:20:b8:13:9a:38:fc:09:d3:b4:be:88:f8:05:
                    4d:b9:64:42:35:72:17:c8:1a:7d:15:a6:86:b3:a0:
                    d7:37:9d:5e:07:c7:72:5b:76:c4:e1:0e:33:cc:0c:
                    fd:49:fe:dd:17:89:e0:86:03:02:44:a4:6a:ff:ee:
                    bd:4a:4a:64:9c:97:2e:53:d1:18:11:20:b1:ca:d2:
                    26:dc:89:25:c1:51:c5:1c:e4:8e:5c:5d:65:86:40:
                    37:e0:fd:e5:34:d4:42:9d:0b:6f:1b:00:ab:d2:60:
                    7f:75
                Exponent: 65537 (0x10001)
        X509v3 extensions:
            X509v3 Basic Constraints: 
                CA:FALSE
            X509v3 Subject Key Identifier: 
                25:B7:E4:27:EC:D7:EB:A6:AA:CA:E1:CC:AE:C4:DA:3D:A4:C3:21:AC
            X509v3 Authority Key Identifier: 
                keyid:F9:AC:B7:80:C0:79:62:FE:55:F8:7C:98:5A:0C:BD:CC:52:89:98:CF

    Signature Algorithm: sha256WithRSAEncryption
         c4:f2:19:94:ef:d9:6c:ca:be:5a:6a:82:8c:ef:7d:d8:8f:c8:
         b7:b3:52:76:b6:f5:e5:f8:bb:94:a0:e1:0d:15:1a:c3:eb:b1:
         d2:2e:31:86:df:a8:69:74:e6:20:e7:9f:df:c2:2e:6e:a2:f1:
         2e:72:88:fa:d4:3c:c8:0d:b3:b1:b7:7e:17:63:01:4d:d9:a2:
         64:9d:02:d4:d9:55:ab:cd:bc:d7:11:63:e6:d5:2e:08:e9:40:
         f5:6d:92:c8:fd:c3:d4:51:63:bb:b5:40:3c:32:30:09:fc:f0:
         28:27:c5:c9:f9:f2:f4:49:0c:a6:fb:86:4c:10:72:62:7c:0e:
         0e:bd:c3:ed:18:70:97:2f:47:0f:8f:93:2e:c1:68:b6:84:f3:
         07:2e:5b:5f:98:dc:76:58:9d:e8:46:a7:83:5d:f1:c0:5c:bc:
         31:4c:3d:3d:c6:64:61:e2:67:fc:8d:a6:6c:13:d4:2a:df:c4:
         1e:83:1e:26:5c:fa:9e:8d:ce:4d:97:45:21:2d:50:4b:fa:c3:
         a0:70:ab:c6:52:33:5e:d4:c4:f8:c9:8d:f6:97:dc:79:49:71:
         ae:4c:1e:a9:cc:17:4c:5d:8d:39:98:e9:3f:6e:2b:b5:53:75:
         a1:32:3d:d2:eb:b5:f3:37:1b:24:b0:73:de:22:97:e2:d1:42:
         ce:6e:46:35
-----BEGIN CERTIFICATE-----
MIIDZjCCAk6gAwIBAgIBATANBgkqhkiG9w0BAQsFADBXMQswCQYDVQQGEwJVUzEO
MAwGA1UECAwFVW5zZXQxDjAMBgNVBAcMBVVuc2V0MQ4wDAYDVQQKDAVVbnNldDEY
MBYGA1UEAwwPd3d3LmV4YW1wbGUuY29tMB4XDTE0MTEyNjA2NTg0OFoXDTI0MTEy
MzA2NTg0OFowRzELMAkGA1UEBhMCVVMxDjAMBgNVBAgMBVVuc2V0MQ4wDAYDVQQK
DAVVbnNldDEYMBYGA1UEAwwPd3d3LmV4YW1wbGUuY29tMIIBIjANBgkqhkiG9w0B
AQEFAAOCAQ8AMIIBCgKCAQEAzQ8uLnJ1lQpN7csStoSzgvcdtd/5CRGxI1F9yr8l
rSQKFNVDThHXWd8XjbTEPBzr4w0hIe2hjXIu9NMenU8seLYYwajoLdeG2YgQ1tjU
XXg14n95V5Yq4aakRJoVgVe4nZ0++oTrakqqGk76HeCbl5s7/0pHCwnLVXGKVcMG
cqazsb6cUMq/1yGKBXCGyNFOMUo9fKBtYCC4E5o4/AnTtL6I+AVNuWRCNXIXyBp9
FaaGs6DXN51eB8dyW3bE4Q4zzAz9Sf7dF4nghgMCRKRq/+69SkpknJcuU9EYESCx
ytIm3IklwVHFHOSOXF1lhkA34P3lNNRCnQtvGwCr0mB/dQIDAQABo00wSzAJBgNV
HRMEAjAAMB0GA1UdDgQWBBQlt+Qn7NfrpqrK4cyuxNo9pMMhrDAfBgNVHSMEGDAW
gBT5rLeAwHli/lX4fJhaDL3MUomYzzANBgkqhkiG9w0BAQsFAAOCAQEAxPIZlO/Z
bMq+WmqCjO992I/It7NSdrb15fi7lKDhDRUaw+ux0i4xht+oaXTmIOef38IubqLx
LnKI+tQ8yA2zsbd+F2MBTdmiZJ0C1NlVq8281xFj5tUuCOlA9W2SyP3D1FFju7VA
PDIwCfzwKCfFyfny9EkMpvuGTBByYnwODr3D7Rhwly9HD4+TLsFotoTzBy5bX5jc
dlid6Eang13xwFy8MUw9PcZkYeJn/I2mbBPUKt/EHoMeJlz6no3OTZdFIS1QS/rD
oHCrxlIzXtTE+MmN9pfceUlxrkweqcwXTF2NOZjpP24rtVN1oTI90uu18zcbJLBz
3iKX4tFCzm5GNQ==
-----END CERTIFICATE-----
