Certificate:
    Data:
        Version: 3 (0x2)
        Serial Number: 1 (0x1)
    Signature Algorithm: sha256WithRSAEncryption
        Issuer: C=US, ST=Unset, L=Unset, O=Unset, CN=www.example.com
        Validity
            Not Before: Dec 12 11:18:10 2014 GMT
            Not After : Dec  9 11:18:10 2024 GMT
        Subject: C=US, ST=Unset, O=Unset, CN=www.example.com
        Subject Public Key Info:
            Public Key Algorithm: rsaEncryption
                Public-Key: (2048 bit)
                Modulus:
                    00:ef:a7:f8:fd:d7:63:11:e5:b3:3f:8b:d6:13:42:
                    5e:ef:26:58:83:0f:68:06:32:9f:18:fb:bc:3b:23:
                    cc:4d:6b:e7:ae:08:c6:ea:a9:b7:32:92:9c:de:bd:
                    24:78:c0:3a:b1:24:67:8b:de:fb:72:20:7e:99:4b:
                    59:80:48:e4:90:37:9b:99:48:43:ac:9c:c9:0a:db:
                    77:b8:bd:34:47:ea:20:68:20:c3:46:11:c5:a6:a2:
                    07:fd:09:60:3a:db:6f:11:1f:fe:f1:e8:cc:8c:c9:
                    a2:32:62:b4:5a:02:72:2a:f3:6b:1b:dc:5a:c9:32:
                    07:31:21:e2:92:99:5c:f9:71:b2:aa:eb:04:ee:17:
                    3d:e1:43:7f:60:47:a2:a6:8e:27:c6:a9:bb:f5:12:
                    33:fc:b6:af:03:ae:38:d3:55:36:89:80:2f:25:b1:
                    4a:ba:c9:2d:4d:07:84:8a:f9:58:d6:1b:24:d8:99:
                    9a:d1:ae:fd:a5:da:e7:c7:aa:95:d9:6e:05:e5:5a:
                    20:13:c3:be:b2:27:df:69:62:23:9c:5a:57:08:8d:
                    81:0d:ce:e3:72:90:b3:43:b5:aa:14:82:b9:38:06:
                    db:35:54:c8:96:4f:86:09:3b:90:1c:cd:31:df:73:
                    fe:a6:0f:24:db:68:1c:a7:4e:88:18:06:85:13:67:
                    2b:87
                Exponent: 65537 (0x10001)
        X509v3 extensions:
            X509v3 Basic Constraints: 
                CA:FALSE
            X509v3 Subject Key Identifier: 
                6D:21:C7:8F:7C:EC:C7:3B:5D:13:81:8B:1E:43:39:AC:F0:4F:F6:0E
            X509v3 Authority Key Identifier: 
                keyid:0B:97:DD:9F:25:88:0A:FE:CB:FD:C7:8C:6A:20:3A:E0:02:33:1B:DA

    Signature Algorithm: sha256WithRSAEncryption
         25:0f:8f:2d:d3:26:14:bf:7c:37:08:dc:8e:2e:9e:80:09:01:
         74:15:f4:68:d2:46:7e:30:58:74:24:5f:72:3f:91:e5:5c:b0:
         22:8a:e0:e2:69:62:b4:15:a5:86:5b:37:71:d9:cd:26:fb:c5:
         b7:af:a6:04:e2:25:51:ec:47:03:8a:50:22:c9:70:e5:1e:1e:
         a5:c1:da:f0:80:98:15:b6:aa:15:d3:3c:6c:0c:5c:00:26:41:
         aa:24:dd:35:ef:31:c5:a0:1e:ca:d4:48:38:35:6f:2e:2d:80:
         48:4a:3d:47:c9:e0:f0:ed:89:64:a0:31:e2:21:87:51:82:fe:
         5a:f2:68:9f:ac:22:c7:0e:5a:5f:f7:44:62:17:d5:b5:be:3b:
         4c:92:df:20:3c:95:19:59:bd:4f:b0:be:a1:9d:ce:d9:1f:30:
         ff:f8:c9:75:38:dc:a1:0c:11:26:63:e1:6b:ca:e0:26:8d:b6:
         ad:dd:a0:c4:23:fd:36:57:37:6a:2e:b6:72:13:38:f0:4f:0b:
         f7:12:1f:bf:92:59:a4:50:ea:2e:f5:2d:96:56:b9:00:cd:bc:
         4e:a0:f2:f2:93:6b:d9:0e:53:f7:b1:01:28:34:3b:be:2d:df:
         b1:71:8f:25:d1:f3:54:63:cc:33:8e:8e:ca:ba:ec:80:a3:db:
         d8:cb:b3:86
-----BEGIN CERTIFICATE-----
MIIDZjCCAk6gAwIBAgIBATANBgkqhkiG9w0BAQsFADBXMQswCQYDVQQGEwJVUzEO
MAwGA1UECAwFVW5zZXQxDjAMBgNVBAcMBVVuc2V0MQ4wDAYDVQQKDAVVbnNldDEY
MBYGA1UEAwwPd3d3LmV4YW1wbGUuY29tMB4XDTE0MTIxMjExMTgxMFoXDTI0MTIw
OTExMTgxMFowRzELMAkGA1UEBhMCVVMxDjAMBgNVBAgMBVVuc2V0MQ4wDAYDVQQK
DAVVbnNldDEYMBYGA1UEAwwPd3d3LmV4YW1wbGUuY29tMIIBIjANBgkqhkiG9w0B
AQEFAAOCAQ8AMIIBCgKCAQEA76f4/ddjEeWzP4vWE0Je7yZYgw9oBjKfGPu8OyPM
TWvnrgjG6qm3MpKc3r0keMA6sSRni977ciB+mUtZgEjkkDebmUhDrJzJCtt3uL00
R+ogaCDDRhHFpqIH/QlgOttvER/+8ejMjMmiMmK0WgJyKvNrG9xayTIHMSHikplc
+XGyqusE7hc94UN/YEeipo4nxqm79RIz/LavA64401U2iYAvJbFKusktTQeEivlY
1hsk2Jma0a79pdrnx6qV2W4F5VogE8O+siffaWIjnFpXCI2BDc7jcpCzQ7WqFIK5
OAbbNVTIlk+GCTuQHM0x33P+pg8k22gcp06IGAaFE2crhwIDAQABo00wSzAJBgNV
HRMEAjAAMB0GA1UdDgQWBBRtIcePfOzHO10TgYseQzms8E/2DjAfBgNVHSMEGDAW
gBQLl92fJYgK/sv9x4xqIDrgAjMb2jANBgkqhkiG9w0BAQsFAAOCAQEAJQ+PLdMm
FL98Nwjcji6egAkBdBX0aNJGfjBYdCRfcj+R5VywIorg4mlitBWlhls3cdnNJvvF
t6+mBOIlUexHA4pQIslw5R4epcHa8ICYFbaqFdM8bAxcACZBqiTdNe8xxaAeytRI
ODVvLi2ASEo9R8ng8O2JZKAx4iGHUYL+WvJon6wixw5aX/dEYhfVtb47TJLfIDyV
GVm9T7C+oZ3O2R8w//jJdTjcoQwRJmPha8rgJo22rd2gxCP9Nlc3ai62chM48E8L
9xIfv5JZpFDqLvUtlla5AM28TqDy8pNr2Q5T97EBKDQ7vi3fsXGPJdHzVGPMM46O
yrrsgKPb2Muzhg==
-----END CERTIFICATE-----
