Certificate:
    Data:
        Version: 3 (0x2)
        Serial Number: 1 (0x1)
    Signature Algorithm: sha1WithRSAEncryption
        Issuer: C=US, ST=Unset, L=Unset, O=Unset, CN=www.example.com
        Validity
            Not Before: Oct 11 18:12:53 2014 GMT
            Not After : Oct  8 18:12:53 2024 GMT
        Subject: C=US, ST=Unset, O=Unset, CN=www.example.com
        Subject Public Key Info:
            Public Key Algorithm: rsaEncryption
                Public-Key: (2048 bit)
                Modulus:
                    00:ca:6d:19:10:6e:6b:07:b9:95:8d:b3:0e:c4:59:
                    e2:16:98:2a:db:be:06:f1:2f:42:bd:20:71:2d:16:
                    3f:e7:42:68:79:30:0a:87:e0:08:81:1a:8d:8d:2e:
                    7b:2c:1e:be:c4:41:3a:b7:97:a1:aa:29:75:ff:40:
                    be:86:9c:87:81:17:7a:11:09:32:ac:df:46:2c:47:
                    5d:f7:e9:33:b3:2f:43:6c:90:d9:74:04:93:ea:36:
                    95:b6:3e:53:9b:d7:3e:6d:c3:62:a6:b0:32:7c:40:
                    b8:32:8c:e3:d5:42:85:13:92:8b:93:37:43:10:42:
                    00:dc:b1:01:af:19:65:7a:ff:e4:c8:33:f3:22:16:
                    01:95:50:a3:48:21:04:90:c9:7c:1c:bb:e3:e2:d8:
                    c3:99:3d:5e:49:d4:c2:03:38:93:bc:81:24:03:47:
                    0c:62:3f:43:5f:a2:ee:9a:a0:3c:36:36:05:fc:d8:
                    e0:e1:b2:64:f4:99:3a:7d:a5:ce:8e:5a:9b:a8:6d:
                    ac:22:b0:aa:ce:18:0b:b0:94:9c:de:74:49:f9:62:
                    24:ab:43:fd:be:2c:a6:b1:57:96:d0:5d:34:45:bc:
                    09:b7:1e:d1:96:81:99:92:3f:0c:ef:1c:60:1b:31:
                    05:d1:99:10:91:40:6d:6b:fb:90:8d:11:3a:a4:72:
                    13:b7
                Exponent: 65537 (0x10001)
        X509v3 extensions:
            X509v3 Basic Constraints: 
                CA:FALSE
            X509v3 Subject Key Identifier: 
                E5:E6:86:A2:05:CC:F9:08:68:09:9C:B7:6F:4A:58:55:79:2D:24:E7
            X509v3 Authority Key Identifier: 
                keyid:64:4F:6C:98:64:E8:05:F2:34:C6:D4:AB:EF:BD:3E:3C:80:0B:47:D0

    Signature Algorithm: sha1WithRSAEncryption
         67:8f:7b:10:77:e8:75:3e:86:55:c9:6a:df:c4:c6:f3:86:d9:
         93:5e:1d:72:d6:f7:73:8d:97:d4:02:a5:48:f1:75:29:c8:2c:
         ab:92:6a:f9:cd:3e:ee:16:77:f6:4b:81:05:ed:1e:6d:95:d3:
         57:6a:fb:c5:fa:e0:e5:64:c5:08:26:12:94:a5:d4:03:7a:15:
         45:51:69:92:4e:f0:94:ec:9c:9c:e8:9d:29:8e:80:da:5e:c3:
         85:1d:2b:d6:66:72:e6:4b:96:67:ca:13:ab:e4:bb:56:7d:d6:
         0f:82:7f:7a:aa:db:e2:38:b8:1b:56:d3:d2:de:c3:91:d2:9a:
         be:54:bb:4b:f9:ca:86:fc:33:cb:b9:66:9b:1f:cf:5e:f5:5e:
         a8:f0:1e:98:db:a5:d1:36:c0:5a:c2:75:94:ed:10:3b:2c:dd:
         5b:9b:81:53:e3:e2:38:21:fc:f2:7a:f5:e0:0d:f3:d4:6c:89:
         3e:e4:af:66:7e:ad:11:ef:f9:5c:38:93:37:66:46:98:d9:c5:
         02:b4:f3:33:d5:d7:30:6d:de:b7:45:75:c0:30:15:b2:b7:5f:
         05:92:71:3d:79:dc:cc:c6:47:4f:66:63:07:14:7c:3d:d6:6e:
         5a:e5:2c:c9:84:fd:3c:dd:8a:2f:4b:d8:b2:7c:14:35:b8:27:
         d1:97:66:4d
-----BEGIN CERTIFICATE-----
MIIDZjCCAk6gAwIBAgIBATANBgkqhkiG9w0BAQUFADBXMQswCQYDVQQGEwJVUzEO
MAwGA1UECAwFVW5zZXQxDjAMBgNVBAcMBVVuc2V0MQ4wDAYDVQQKDAVVbnNldDEY
MBYGA1UEAwwPd3d3LmV4YW1wbGUuY29tMB4XDTE0MTAxMTE4MTI1M1oXDTI0MTAw
ODE4MTI1M1owRzELMAkGA1UEBhMCVVMxDjAMBgNVBAgMBVVuc2V0MQ4wDAYDVQQK
DAVVbnNldDEYMBYGA1UEAwwPd3d3LmV4YW1wbGUuY29tMIIBIjANBgkqhkiG9w0B
AQEFAAOCAQ8AMIIBCgKCAQEAym0ZEG5rB7mVjbMOxFniFpgq274G8S9CvSBxLRY/
50JoeTAKh+AIgRqNjS57LB6+xEE6t5ehqil1/0C+hpyHgRd6EQkyrN9GLEdd9+kz
sy9DbJDZdAST6jaVtj5Tm9c+bcNiprAyfEC4Mozj1UKFE5KLkzdDEEIA3LEBrxll
ev/kyDPzIhYBlVCjSCEEkMl8HLvj4tjDmT1eSdTCAziTvIEkA0cMYj9DX6LumqA8
NjYF/Njg4bJk9Jk6faXOjlqbqG2sIrCqzhgLsJSc3nRJ+WIkq0P9viymsVeW0F00
RbwJtx7RloGZkj8M7xxgGzEF0ZkQkUBta/uQjRE6pHITtwIDAQABo00wSzAJBgNV
HRMEAjAAMB0GA1UdDgQWBBTl5oaiBcz5CGgJnLdvSlhVeS0k5zAfBgNVHSMEGDAW
gBRkT2yYZOgF8jTG1KvvvT48gAtH0DANBgkqhkiG9w0BAQUFAAOCAQEAZ497EHfo
dT6GVclq38TG84bZk14dctb3c42X1AKlSPF1Kcgsq5Jq+c0+7hZ39kuBBe0ebZXT
V2r7xfrg5WTFCCYSlKXUA3oVRVFpkk7wlOycnOidKY6A2l7DhR0r1mZy5kuWZ8oT
q+S7Vn3WD4J/eqrb4ji4G1bT0t7DkdKavlS7S/nKhvwzy7lmmx/PXvVeqPAemNul
0TbAWsJ1lO0QOyzdW5uBU+PiOCH88nr14A3z1GyJPuSvZn6tEe/5XDiTN2ZGmNnF
ArTzM9XXMG3et0V1wDAVsrdfBZJxPXnczMZHT2ZjBxR8PdZuWuUsyYT9PN2KL0vY
snwUNbgn0ZdmTQ==
-----END CERTIFICATE-----
