Certificate:
    Data:
        Version: 3 (0x2)
        Serial Number: 1 (0x1)
    Signature Algorithm: sha1WithRSAEncryption
        Issuer: C=US, ST=Unset, L=Unset, O=Unset, CN=www.example.com
        Validity
            Not Before: Oct 11 17:56:17 2014 GMT
            Not After : Oct  8 17:56:17 2024 GMT
        Subject: C=US, ST=Unset, O=Unset, CN=www.example.com
        Subject Public Key Info:
            Public Key Algorithm: rsaEncryption
                Public-Key: (2048 bit)
                Modulus:
                    00:a4:80:35:87:1f:cd:74:ed:4a:8a:e2:42:81:f0:
                    19:42:be:cf:d6:3d:22:4a:4c:dc:bf:aa:8d:3c:f6:
                    f0:f1:6f:7c:85:c9:a1:1b:bc:a1:da:d3:a2:fc:3c:
                    59:af:f7:ce:16:b0:4e:5b:06:f6:cb:19:03:fb:df:
                    2c:f5:34:97:6b:04:1c:10:a0:18:9f:32:c2:ec:ca:
                    84:4a:f0:10:b7:dd:9a:98:22:db:17:2c:a9:89:3f:
                    8c:2f:b8:09:ec:aa:aa:e9:9f:7d:3c:0f:00:54:b8:
                    44:bf:26:61:79:ca:bb:e2:84:d2:05:ef:53:80:66:
                    43:fd:a6:e9:16:53:ea:73:ce:21:73:12:f6:4c:ab:
                    a3:ae:15:fa:34:77:4b:32:68:38:d2:7d:7e:6f:cf:
                    99:30:13:70:6d:5b:1c:d2:fa:44:70:fc:e6:e4:d6:
                    f7:e2:a3:cb:9a:3c:be:47:85:28:4b:81:41:66:50:
                    89:6f:b5:b0:36:78:69:a5:00:64:4d:4d:17:42:37:
                    cc:74:0d:94:19:d9:14:e0:38:3d:c5:ee:b5:f1:94:
                    f2:85:b8:ff:f0:06:0c:34:56:10:87:d2:b0:11:c2:
                    7f:b2:64:35:8c:ba:f5:da:ee:4b:ed:b1:d8:ba:b2:
                    be:ab:a8:5c:40:12:ff:37:66:32:1f:0f:e4:66:68:
                    a7:4d
                Exponent: 65537 (0x10001)
        X509v3 extensions:
            X509v3 Basic Constraints: 
                CA:FALSE
            X509v3 Subject Key Identifier: 
                4C:3D:3A:79:02:30:1E:2B:5E:D7:ED:B2:B9:3F:84:2C:A8:BC:71:2F
            X509v3 Authority Key Identifier: 
                keyid:D7:3D:DD:38:A8:7F:0B:E6:C3:A1:B2:31:93:14:88:B9:85:F6:3D:D9

    Signature Algorithm: sha1WithRSAEncryption
         6e:7e:5c:13:7f:9b:ce:a5:bf:dc:f9:e6:84:d0:51:4f:f4:be:
         1f:ba:4f:20:1c:f4:87:c3:2d:f1:98:24:d4:8f:9e:32:6b:e2:
         5a:1e:86:c9:7b:cb:40:14:d4:fe:43:3c:fa:fa:13:9c:9d:f4:
         93:de:a5:6e:d5:f9:cb:34:d6:e4:be:7b:d9:f2:76:fe:e2:58:
         06:9e:ff:76:88:9b:3a:ab:f3:e2:35:3a:d0:18:d2:cd:21:13:
         7c:ef:5e:da:64:f8:59:9c:cd:20:b1:9f:85:31:e1:86:cf:28:
         ab:53:ec:81:fc:a7:76:c5:eb:0d:f7:85:78:32:7a:cc:db:df:
         14:08:56:4f:a6:96:8a:52:28:8e:15:56:03:73:21:c6:68:85:
         84:24:b0:73:fa:56:c1:3f:ec:62:9e:4e:33:1f:6f:fa:41:ac:
         d7:26:9f:8c:c2:dc:62:4c:46:92:b6:12:a5:51:15:84:aa:a0:
         91:02:51:f8:0b:8d:73:67:12:08:2d:06:65:bd:86:85:54:45:
         c3:76:8a:2d:04:6c:3e:8f:69:49:b4:34:0f:df:45:1a:9d:54:
         8e:e9:08:04:92:f0:7c:24:af:f5:ef:02:2d:4b:44:d5:6b:4f:
         3e:c2:e7:cd:4a:fd:dd:c4:d0:56:c2:5e:d2:9b:a4:c8:e4:84:
         79:82:85:53
-----BEGIN CERTIFICATE-----
MIIDZjCCAk6gAwIBAgIBATANBgkqhkiG9w0BAQUFADBXMQswCQYDVQQGEwJVUzEO
MAwGA1UECAwFVW5zZXQxDjAMBgNVBAcMBVVuc2V0MQ4wDAYDVQQKDAVVbnNldDEY
MBYGA1UEAwwPd3d3LmV4YW1wbGUuY29tMB4XDTE0MTAxMTE3NTYxN1oXDTI0MTAw
ODE3NTYxN1owRzELMAkGA1UEBhMCVVMxDjAMBgNVBAgMBVVuc2V0MQ4wDAYDVQQK
DAVVbnNldDEYMBYGA1UEAwwPd3d3LmV4YW1wbGUuY29tMIIBIjANBgkqhkiG9w0B
AQEFAAOCAQ8AMIIBCgKCAQEApIA1hx/NdO1KiuJCgfAZQr7P1j0iSkzcv6qNPPbw
8W98hcmhG7yh2tOi/DxZr/fOFrBOWwb2yxkD+98s9TSXawQcEKAYnzLC7MqESvAQ
t92amCLbFyypiT+ML7gJ7Kqq6Z99PA8AVLhEvyZhecq74oTSBe9TgGZD/abpFlPq
c84hcxL2TKujrhX6NHdLMmg40n1+b8+ZMBNwbVsc0vpEcPzm5Nb34qPLmjy+R4Uo
S4FBZlCJb7WwNnhppQBkTU0XQjfMdA2UGdkU4Dg9xe618ZTyhbj/8AYMNFYQh9Kw
EcJ/smQ1jLr12u5L7bHYurK+q6hcQBL/N2YyHw/kZminTQIDAQABo00wSzAJBgNV
HRMEAjAAMB0GA1UdDgQWBBRMPTp5AjAeK17X7bK5P4QsqLxxLzAfBgNVHSMEGDAW
gBTXPd04qH8L5sOhsjGTFIi5hfY92TANBgkqhkiG9w0BAQUFAAOCAQEAbn5cE3+b
zqW/3PnmhNBRT/S+H7pPIBz0h8Mt8Zgk1I+eMmviWh6GyXvLQBTU/kM8+voTnJ30
k96lbtX5yzTW5L572fJ2/uJYBp7/doibOqvz4jU60BjSzSETfO9e2mT4WZzNILGf
hTHhhs8oq1PsgfyndsXrDfeFeDJ6zNvfFAhWT6aWilIojhVWA3MhxmiFhCSwc/pW
wT/sYp5OMx9v+kGs1yafjMLcYkxGkrYSpVEVhKqgkQJR+AuNc2cSCC0GZb2GhVRF
w3aKLQRsPo9pSbQ0D99FGp1UjukIBJLwfCSv9e8CLUtE1WtPPsLnzUr93cTQVsJe
0pukyOSEeYKFUw==
-----END CERTIFICATE-----
