Certificate:
    Data:
        Version: 3 (0x2)
        Serial Number: 1 (0x1)
    Signature Algorithm: sha256WithRSAEncryption
        Issuer: C=US, ST=Unset, L=Unset, O=Unset, CN=www.example.com
        Validity
            Not Before: Nov 26 05:51:06 2014 GMT
            Not After : Nov 23 05:51:06 2024 GMT
        Subject: C=US, ST=Unset, O=Unset, CN=www.example.com
        Subject Public Key Info:
            Public Key Algorithm: rsaEncryption
                Public-Key: (2048 bit)
                Modulus:
                    00:d0:f7:a7:12:2e:1f:f7:05:6b:d6:a6:2b:34:0a:
                    7e:d8:7e:a6:7f:58:0b:b0:3d:ad:37:eb:31:2f:86:
                    c9:4a:15:4a:61:04:75:de:97:17:d9:94:d1:66:ba:
                    a5:9b:c2:75:dc:4d:73:4a:21:ed:e5:77:1a:58:8b:
                    dd:1c:fa:dd:e9:c7:15:2d:15:ef:42:f8:65:e7:f2:
                    18:3f:b0:a7:4b:02:65:38:14:00:91:e7:de:65:d2:
                    29:6c:cd:ae:49:b1:3d:bf:c2:e1:cd:68:64:4b:12:
                    84:a9:7f:a9:a3:3e:10:7f:5a:3b:f8:c3:e7:39:bb:
                    42:93:ce:e9:b3:24:a1:a6:64:14:e7:fd:e4:f1:9f:
                    b4:6e:07:69:48:65:a7:ea:fd:d0:e3:2d:c7:b5:09:
                    d1:fb:fb:1b:10:e9:0b:8a:34:da:dc:8e:d1:23:6c:
                    4e:e9:69:2f:2e:8f:ac:0a:98:5b:e5:ef:7b:87:0f:
                    4c:a2:11:9e:1e:28:85:cb:e5:bc:e3:4a:12:0c:83:
                    36:3e:f7:2e:d8:80:b7:44:af:a9:93:ec:7e:eb:78:
                    df:2c:38:14:c0:59:39:fb:95:d7:9e:ae:93:e8:07:
                    ee:f3:72:64:95:94:32:48:5a:d6:ee:61:e3:49:0e:
                    76:c4:18:f1:9f:9d:06:bc:64:c2:74:a1:62:af:75:
                    b4:a3
                Exponent: 65537 (0x10001)
        X509v3 extensions:
            X509v3 Basic Constraints: 
                CA:FALSE
            X509v3 Subject Key Identifier: 
                C1:73:18:1E:0C:FE:9C:38:52:96:E0:23:98:A0:AE:D1:28:3C:68:CE
            X509v3 Authority Key Identifier: 
                keyid:75:FE:60:CC:D5:6F:22:60:22:61:3A:4E:1E:7E:CB:FD:FD:74:BA:A4

    Signature Algorithm: sha256WithRSAEncryption
         4d:3b:62:a4:f9:2a:c1:81:f8:c8:26:12:c6:d9:a7:6a:96:94:
         6f:e3:46:95:7a:03:1f:0d:10:bd:fa:e6:4d:9e:f7:b0:05:e1:
         bc:7f:18:35:af:1d:2d:bd:36:63:46:9c:cd:ec:be:5b:64:07:
         df:6e:2c:95:c4:15:fa:19:af:bd:01:87:a0:19:80:26:4f:a6:
         62:47:fe:f4:71:95:5d:9a:a4:61:ce:14:d7:22:ad:59:fc:66:
         aa:65:2d:bb:c9:45:d5:06:7f:a4:cd:91:4d:f3:1c:ac:69:e7:
         18:e7:f8:12:9d:91:5e:e4:d9:a9:e8:d4:22:f8:fa:b3:da:44:
         f8:68:f4:52:e0:ca:c0:3b:3e:d8:47:8b:b3:bf:2a:b6:db:ef:
         b6:5b:2a:d8:7d:f1:bb:26:c9:ba:43:5f:2d:1f:56:7b:57:2e:
         6c:6b:2d:4d:58:e1:e8:60:0c:76:2c:6c:3b:fb:2e:74:f4:59:
         80:06:c4:52:61:df:b9:0f:c8:63:eb:5d:c6:ba:55:9d:9d:f3:
         91:e3:e5:20:aa:7d:c1:01:fd:af:5d:0c:76:84:89:5c:c3:bd:
         5e:5d:e6:f8:94:06:30:41:8c:4f:37:ec:ab:f6:12:bc:23:9d:
         ee:7c:46:b0:cb:3f:9e:0c:cf:44:fc:de:19:ad:ac:40:b0:a9:
         c5:f8:f0:a8
-----BEGIN CERTIFICATE-----
MIIDZjCCAk6gAwIBAgIBATANBgkqhkiG9w0BAQsFADBXMQswCQYDVQQGEwJVUzEO
MAwGA1UECAwFVW5zZXQxDjAMBgNVBAcMBVVuc2V0MQ4wDAYDVQQKDAVVbnNldDEY
MBYGA1UEAwwPd3d3LmV4YW1wbGUuY29tMB4XDTE0MTEyNjA1NTEwNloXDTI0MTEy
MzA1NTEwNlowRzELMAkGA1UEBhMCVVMxDjAMBgNVBAgMBVVuc2V0MQ4wDAYDVQQK
DAVVbnNldDEYMBYGA1UEAwwPd3d3LmV4YW1wbGUuY29tMIIBIjANBgkqhkiG9w0B
AQEFAAOCAQ8AMIIBCgKCAQEA0PenEi4f9wVr1qYrNAp+2H6mf1gLsD2tN+sxL4bJ
ShVKYQR13pcX2ZTRZrqlm8J13E1zSiHt5XcaWIvdHPrd6ccVLRXvQvhl5/IYP7Cn
SwJlOBQAkefeZdIpbM2uSbE9v8LhzWhkSxKEqX+poz4Qf1o7+MPnObtCk87psySh
pmQU5/3k8Z+0bgdpSGWn6v3Q4y3HtQnR+/sbEOkLijTa3I7RI2xO6WkvLo+sCphb
5e97hw9MohGeHiiFy+W840oSDIM2Pvcu2IC3RK+pk+x+63jfLDgUwFk5+5XXnq6T
6Afu83JklZQySFrW7mHjSQ52xBjxn50GvGTCdKFir3W0owIDAQABo00wSzAJBgNV
HRMEAjAAMB0GA1UdDgQWBBTBcxgeDP6cOFKW4COYoK7RKDxozjAfBgNVHSMEGDAW
gBR1/mDM1W8iYCJhOk4efsv9/XS6pDANBgkqhkiG9w0BAQsFAAOCAQEATTtipPkq
wYH4yCYSxtmnapaUb+NGlXoDHw0QvfrmTZ73sAXhvH8YNa8dLb02Y0aczey+W2QH
324slcQV+hmvvQGHoBmAJk+mYkf+9HGVXZqkYc4U1yKtWfxmqmUtu8lF1QZ/pM2R
TfMcrGnnGOf4Ep2RXuTZqejUIvj6s9pE+Gj0UuDKwDs+2EeLs78qttvvtlsq2H3x
uybJukNfLR9We1cubGstTVjh6GAMdixsO/sudPRZgAbEUmHfuQ/IY+tdxrpVnZ3z
kePlIKp9wQH9r10MdoSJXMO9Xl3m+JQGMEGMTzfsq/YSvCOd7nxGsMs/ngzPRPze
Ga2sQLCpxfjwqA==
-----END CERTIFICATE-----
