Certificate:
    Data:
        Version: 3 (0x2)
        Serial Number: 1 (0x1)
    Signature Algorithm: sha1WithRSAEncryption
        Issuer: C=US, ST=Unset, L=Unset, O=Unset, CN=www.example.com
        Validity
            Not Before: Oct 12 00:52:05 2014 GMT
            Not After : Oct  9 00:52:05 2024 GMT
        Subject: C=US, ST=Unset, O=Unset, CN=www.example.com
        Subject Public Key Info:
            Public Key Algorithm: rsaEncryption
                Public-Key: (2048 bit)
                Modulus:
                    00:c6:5d:bf:97:f6:92:7c:55:c0:d2:ff:be:a0:70:
                    15:22:61:30:4d:3c:7b:4b:82:65:60:09:15:c3:0a:
                    e3:3f:b6:d9:96:64:37:7c:82:8e:40:c0:4b:88:16:
                    4c:27:64:0c:8d:a0:b1:ae:ce:ce:6e:29:f5:1b:98:
                    28:8e:aa:bd:eb:24:7e:26:70:de:23:c6:52:c6:34:
                    3d:e2:11:af:93:24:42:6a:a4:2c:94:da:cc:70:6f:
                    d5:d1:af:c9:49:07:a3:af:a4:b2:da:2e:9c:4e:e8:
                    87:1c:48:66:a6:d9:42:2c:2f:1d:9b:ba:c9:45:b1:
                    cc:29:22:2b:ef:71:77:9d:e1:c1:fb:2d:fd:f4:8d:
                    95:97:2d:2f:35:f5:68:12:0a:5f:1d:22:a2:ff:a2:
                    6c:19:a6:84:3a:9d:21:1c:4a:b8:b8:f8:20:74:ee:
                    63:9a:d3:82:14:9a:f0:cb:ee:b0:bd:90:b8:ec:0d:
                    23:5c:63:ab:5a:a6:ff:fe:7e:33:b6:89:2a:3e:b5:
                    3a:ed:10:79:3e:29:3f:54:07:a7:00:79:a7:c1:c2:
                    61:ea:b8:fd:25:74:12:bc:a1:b9:ec:d3:76:ec:35:
                    89:ac:a3:be:9c:2d:8b:bb:96:63:14:6c:1b:cd:7c:
                    ba:90:7a:fb:62:4f:b9:c2:99:42:93:35:48:a4:6c:
                    60:49
                Exponent: 65537 (0x10001)
        X509v3 extensions:
            X509v3 Basic Constraints: 
                CA:FALSE
            X509v3 Subject Key Identifier: 
                83:69:98:89:A9:D3:90:00:E4:91:89:2B:1F:3F:3F:5C:A6:0E:B5:49
            X509v3 Authority Key Identifier: 
                keyid:C3:62:06:7B:AD:55:16:09:A0:10:23:30:15:2C:83:10:8E:9F:A5:0B

    Signature Algorithm: sha1WithRSAEncryption
         16:cf:70:e3:3c:88:b5:95:d8:87:24:6a:ec:39:9e:10:9b:6d:
         fa:79:ac:46:0e:ad:64:a0:a9:e3:07:ee:fd:68:65:8b:09:39:
         76:1b:6b:e5:74:91:fa:9c:18:cb:87:11:37:91:92:32:74:69:
         c2:a5:7e:ef:e0:4e:3a:69:c4:ab:e3:da:8d:bb:79:f1:40:e9:
         bf:88:69:1e:fa:84:b2:01:c2:0a:03:96:92:ac:fb:05:c5:54:
         f4:fd:5a:76:fa:c5:a6:eb:e3:73:34:f5:00:83:d3:ff:ce:d3:
         7d:d5:17:d6:f9:6d:00:51:5e:97:26:bf:bb:a7:4f:82:94:2f:
         3e:54:85:ec:6c:7e:09:64:5b:ba:51:5b:14:03:fa:a9:de:a1:
         aa:69:d9:ef:ae:ea:93:7c:99:d5:ce:61:9f:26:fa:e2:6c:b9:
         73:07:0c:a9:ae:cb:e0:82:19:10:96:6b:1c:23:34:e6:51:43:
         c3:1d:31:10:b9:89:f9:34:6b:79:0c:1c:f9:1a:7e:9d:e0:37:
         ea:97:26:c3:91:8c:83:26:14:41:e8:dc:e4:33:28:e4:ae:74:
         79:c6:ef:2b:5d:7f:98:9f:18:d4:89:1b:0e:6c:77:75:f5:07:
         fd:e1:5f:e2:cb:b5:c2:fc:15:e2:2c:dd:c3:91:bc:40:e1:ef:
         df:f1:bb:f6
-----BEGIN CERTIFICATE-----
MIIDZjCCAk6gAwIBAgIBATANBgkqhkiG9w0BAQUFADBXMQswCQYDVQQGEwJVUzEO
MAwGA1UECAwFVW5zZXQxDjAMBgNVBAcMBVVuc2V0MQ4wDAYDVQQKDAVVbnNldDEY
MBYGA1UEAwwPd3d3LmV4YW1wbGUuY29tMB4XDTE0MTAxMjAwNTIwNVoXDTI0MTAw
OTAwNTIwNVowRzELMAkGA1UEBhMCVVMxDjAMBgNVBAgMBVVuc2V0MQ4wDAYDVQQK
DAVVbnNldDEYMBYGA1UEAwwPd3d3LmV4YW1wbGUuY29tMIIBIjANBgkqhkiG9w0B
AQEFAAOCAQ8AMIIBCgKCAQEAxl2/l/aSfFXA0v++oHAVImEwTTx7S4JlYAkVwwrj
P7bZlmQ3fIKOQMBLiBZMJ2QMjaCxrs7Obin1G5gojqq96yR+JnDeI8ZSxjQ94hGv
kyRCaqQslNrMcG/V0a/JSQejr6Sy2i6cTuiHHEhmptlCLC8dm7rJRbHMKSIr73F3
neHB+y399I2Vly0vNfVoEgpfHSKi/6JsGaaEOp0hHEq4uPggdO5jmtOCFJrwy+6w
vZC47A0jXGOrWqb//n4ztokqPrU67RB5Pik/VAenAHmnwcJh6rj9JXQSvKG57NN2
7DWJrKO+nC2Lu5ZjFGwbzXy6kHr7Yk+5wplCkzVIpGxgSQIDAQABo00wSzAJBgNV
HRMEAjAAMB0GA1UdDgQWBBSDaZiJqdOQAOSRiSsfPz9cpg61STAfBgNVHSMEGDAW
gBTDYgZ7rVUWCaAQIzAVLIMQjp+lCzANBgkqhkiG9w0BAQUFAAOCAQEAFs9w4zyI
tZXYhyRq7DmeEJtt+nmsRg6tZKCp4wfu/Whliwk5dhtr5XSR+pwYy4cRN5GSMnRp
wqV+7+BOOmnEq+Pajbt58UDpv4hpHvqEsgHCCgOWkqz7BcVU9P1advrFpuvjczT1
AIPT/87TfdUX1vltAFFelya/u6dPgpQvPlSF7Gx+CWRbulFbFAP6qd6hqmnZ767q
k3yZ1c5hnyb64my5cwcMqa7L4IIZEJZrHCM05lFDwx0xELmJ+TRreQwc+Rp+neA3
6pcmw5GMgyYUQejc5DMo5K50ecbvK11/mJ8Y1IkbDmx3dfUH/eFf4su1wvwV4izd
w5G8QOHv3/G79g==
-----END CERTIFICATE-----
