Certificate:
    Data:
        Version: 3 (0x2)
        Serial Number: 1 (0x1)
    Signature Algorithm: sha256WithRSAEncryption
        Issuer: C=US, ST=Unset, L=Unset, O=Unset, CN=www.example.com
        Validity
            Not Before: Dec 12 13:28:44 2014 GMT
            Not After : Dec  9 13:28:44 2024 GMT
        Subject: C=US, ST=Unset, O=Unset, CN=www.example.com
        Subject Public Key Info:
            Public Key Algorithm: rsaEncryption
                Public-Key: (2048 bit)
                Modulus:
                    00:d7:ab:f8:9f:1f:ca:9b:78:a0:8a:ed:de:0c:10:
                    d0:0b:61:26:06:b9:2a:29:98:f3:16:4e:81:f6:eb:
                    1a:01:b6:e7:d8:49:26:5c:45:ca:8d:60:91:02:4d:
                    0a:f4:ab:b6:ed:91:bb:33:b1:a5:3d:97:d8:7b:65:
                    c9:0a:c2:b5:5d:66:06:a9:72:62:c8:52:1c:f7:97:
                    11:21:6f:32:42:8a:ae:bf:dd:ab:44:78:49:75:04:
                    86:88:9b:fa:26:2c:c8:81:d4:e6:c1:15:42:fa:09:
                    f1:fc:35:ba:ef:89:da:5e:15:bb:07:d6:fa:1b:93:
                    8f:03:c8:66:66:c0:55:59:c1:bb:a5:9e:28:b6:69:
                    b3:b9:d9:8f:10:0c:21:eb:5c:68:25:15:f9:80:5b:
                    16:47:5f:9d:9f:52:31:34:07:d3:e8:e8:e7:37:1e:
                    b2:13:57:82:a9:34:7b:2c:46:13:a2:65:d6:e8:ce:
                    2e:bb:04:64:56:95:5a:bf:28:fe:d8:d3:af:fa:c7:
                    b0:1d:7c:9d:30:4f:41:e3:a8:a1:96:c0:d5:5f:ba:
                    31:fa:c6:5b:90:8b:b5:07:6f:c5:f4:d9:1b:bb:04:
                    00:a3:99:d7:a8:d9:ea:53:d8:58:bf:b3:a4:e0:be:
                    9d:d7:e4:76:ea:24:df:4b:8b:d9:1d:2c:b4:75:1c:
                    d8:1d
                Exponent: 65537 (0x10001)
        X509v3 extensions:
            X509v3 Basic Constraints: 
                CA:FALSE
            X509v3 Subject Key Identifier: 
                B8:77:FF:AE:9A:61:C6:0D:58:CE:5C:26:90:F9:B1:DA:B7:6A:5E:B8
            X509v3 Authority Key Identifier: 
                keyid:CF:A3:E7:93:FC:E8:3F:3D:E7:F1:75:75:31:57:26:82:E7:51:7A:80

    Signature Algorithm: sha256WithRSAEncryption
         29:9e:53:c9:5e:af:85:d8:1b:e0:89:9c:41:99:35:a4:c4:c8:
         80:f8:86:21:0a:31:45:8a:d7:5e:e8:cf:31:c5:35:9d:a3:51:
         1d:e4:f2:d8:86:f1:fe:fc:05:fc:13:54:18:00:68:7a:3a:f6:
         4f:cb:2e:d9:8d:f5:80:19:a7:1d:ed:5f:5f:03:94:d9:e7:f5:
         e0:c8:39:60:de:e5:e1:40:19:ed:6e:b5:dc:23:47:cf:6d:a4:
         11:7f:ff:cb:ad:43:1d:9f:1e:2c:ea:23:38:65:95:1f:7a:64:
         fa:90:7c:84:c5:6d:59:68:93:dd:c1:44:c6:89:ed:02:73:02:
         4b:39:6d:52:e5:af:fe:f3:4b:cf:e1:69:b9:f4:36:a4:90:ca:
         8b:2c:c3:31:12:bd:3e:6d:66:55:21:3a:60:05:e8:57:04:6f:
         66:93:ab:8c:6f:00:b0:07:ff:8a:0b:c6:3e:c9:ea:86:d2:ed:
         d4:5e:67:3c:4c:d2:bb:c7:64:3e:67:1e:da:53:04:01:45:41:
         96:da:2f:e1:19:38:5b:a9:73:5f:21:43:41:b6:88:d3:ed:15:
         8a:30:24:06:1d:ee:57:ec:b5:4f:f6:48:a5:49:c5:2e:30:ea:
         9f:73:97:65:b0:d1:83:18:3b:62:cf:4e:52:e1:49:39:62:b7:
         04:f4:97:a3
-----BEGIN CERTIFICATE-----
MIIDZjCCAk6gAwIBAgIBATANBgkqhkiG9w0BAQsFADBXMQswCQYDVQQGEwJVUzEO
MAwGA1UECAwFVW5zZXQxDjAMBgNVBAcMBVVuc2V0MQ4wDAYDVQQKDAVVbnNldDEY
MBYGA1UEAwwPd3d3LmV4YW1wbGUuY29tMB4XDTE0MTIxMjEzMjg0NFoXDTI0MTIw
OTEzMjg0NFowRzELMAkGA1UEBhMCVVMxDjAMBgNVBAgMBVVuc2V0MQ4wDAYDVQQK
DAVVbnNldDEYMBYGA1UEAwwPd3d3LmV4YW1wbGUuY29tMIIBIjANBgkqhkiG9w0B
AQEFAAOCAQ8AMIIBCgKCAQEA16v4nx/Km3igiu3eDBDQC2EmBrkqKZjzFk6B9usa
Abbn2EkmXEXKjWCRAk0K9Ku27ZG7M7GlPZfYe2XJCsK1XWYGqXJiyFIc95cRIW8y
Qoquv92rRHhJdQSGiJv6JizIgdTmwRVC+gnx/DW674naXhW7B9b6G5OPA8hmZsBV
WcG7pZ4otmmzudmPEAwh61xoJRX5gFsWR1+dn1IxNAfT6OjnNx6yE1eCqTR7LEYT
omXW6M4uuwRkVpVavyj+2NOv+sewHXydME9B46ihlsDVX7ox+sZbkIu1B2/F9Nkb
uwQAo5nXqNnqU9hYv7Ok4L6d1+R26iTfS4vZHSy0dRzYHQIDAQABo00wSzAJBgNV
HRMEAjAAMB0GA1UdDgQWBBS4d/+ummHGDVjOXCaQ+bHat2peuDAfBgNVHSMEGDAW
gBTPo+eT/Og/PefxdXUxVyaC51F6gDANBgkqhkiG9w0BAQsFAAOCAQEAKZ5TyV6v
hdgb4ImcQZk1pMTIgPiGIQoxRYrXXujPMcU1naNRHeTy2Ibx/vwF/BNUGABoejr2
T8su2Y31gBmnHe1fXwOU2ef14Mg5YN7l4UAZ7W613CNHz22kEX//y61DHZ8eLOoj
OGWVH3pk+pB8hMVtWWiT3cFExontAnMCSzltUuWv/vNLz+FpufQ2pJDKiyzDMRK9
Pm1mVSE6YAXoVwRvZpOrjG8AsAf/igvGPsnqhtLt1F5nPEzSu8dkPmce2lMEAUVB
ltov4Rk4W6lzXyFDQbaI0+0VijAkBh3uV+y1T/ZIpUnFLjDqn3OXZbDRgxg7Ys9O
UuFJOWK3BPSXow==
-----END CERTIFICATE-----
