Certificate:
    Data:
        Version: 3 (0x2)
        Serial Number: 1 (0x1)
    Signature Algorithm: sha256WithRSAEncryption
        Issuer: C=US, ST=Unset, L=Unset, O=Unset, CN=www.example.com
        Validity
            Not Before: Nov 26 01:02:46 2014 GMT
            Not After : Nov 23 01:02:46 2024 GMT
        Subject: C=US, ST=Unset, O=Unset, CN=www.example.com
        Subject Public Key Info:
            Public Key Algorithm: rsaEncryption
                Public-Key: (2048 bit)
                Modulus:
                    00:b3:13:4d:76:c4:0f:ba:b6:97:4c:0a:c5:62:63:
                    e4:ed:f4:66:4e:b5:9d:8a:e4:83:37:68:0d:05:f2:
                    73:f4:07:28:56:01:b0:2e:92:72:dc:6f:03:80:e0:
                    34:e9:67:bf:23:a8:27:a3:bf:49:33:52:f8:46:2e:
                    e8:ec:b5:54:1e:13:30:20:db:1e:04:8d:a5:42:14:
                    9a:95:bc:4a:12:92:ff:9f:60:ee:a1:a2:e6:5a:61:
                    de:83:95:72:40:28:87:f1:5e:4a:d6:19:f2:83:55:
                    fe:b0:31:cf:77:7b:16:fc:c9:c9:74:a8:34:f1:f0:
                    da:b3:b1:f6:bc:fe:bd:15:e3:ca:e9:8f:14:55:a8:
                    34:59:2a:2a:20:f5:cb:9b:c4:16:a7:5e:e4:04:bc:
                    2d:45:81:39:37:f4:f0:cd:07:58:44:9d:36:15:4a:
                    d3:73:95:fc:8d:ae:c9:0e:e4:fe:6d:39:54:12:ee:
                    46:8a:97:54:33:91:f6:2e:03:bf:be:43:43:b3:a8:
                    1a:c6:e7:91:75:55:a6:81:c7:77:d2:9d:6a:78:f9:
                    05:58:8e:bc:34:09:ba:36:34:d4:89:8b:05:dc:3b:
                    4e:c6:f1:82:ef:f0:b8:09:45:ea:99:8b:e0:d0:18:
                    b1:e0:c4:d0:a8:db:49:62:5f:af:df:ef:89:e4:e7:
                    91:51
                Exponent: 65537 (0x10001)
        X509v3 extensions:
            X509v3 Basic Constraints: 
                CA:FALSE
            X509v3 Subject Key Identifier: 
                87:5C:2D:4E:2F:1D:72:D4:E7:BA:87:17:DA:B9:63:BC:2B:FB:61:96
            X509v3 Authority Key Identifier: 
                keyid:8E:DD:58:5F:AE:16:78:71:A3:0F:CA:1E:B4:A3:27:BA:AD:32:C3:C8

    Signature Algorithm: sha256WithRSAEncryption
         a9:ca:78:de:59:28:78:60:1c:43:0f:e2:2c:c8:06:d1:de:09:
         98:be:c5:03:7a:6b:54:74:bf:bc:d2:db:c2:06:0c:fd:83:5e:
         fc:6b:c3:aa:80:83:84:61:db:be:3e:63:0d:3b:03:55:0f:32:
         51:95:46:a5:17:91:98:b6:dc:49:c0:e6:0e:e6:21:93:c7:29:
         44:f7:8d:7b:c9:cf:fc:c3:7e:5a:bf:7b:47:5a:30:8c:f2:5d:
         af:ed:23:d1:0c:61:2b:a5:c1:77:b7:c0:e9:40:22:cd:1c:dd:
         b4:83:81:28:f0:eb:d5:6b:2b:e4:5f:19:47:03:7d:2a:f0:9a:
         6b:42:02:55:a0:9f:32:40:e3:83:30:01:79:67:4a:5f:f6:08:
         7c:e1:e7:45:3e:1f:7f:ad:f7:ed:dc:55:3d:29:4b:58:45:a2:
         e5:c5:7b:76:d0:c9:63:f8:de:d3:cb:af:74:58:3f:4f:10:f3:
         b7:fb:96:51:3c:40:07:56:db:12:66:91:80:a9:62:6e:b5:22:
         6c:15:15:9b:ea:d0:da:ea:19:6d:92:f6:c6:96:8e:f8:ff:81:
         9c:1c:ed:3a:ce:b6:76:46:7b:9e:f5:fb:ee:bc:a4:4d:74:4c:
         c8:81:1a:bc:56:c4:cb:cd:6e:af:6e:4b:56:1b:2c:86:72:b7:
         e9:0b:97:f1
-----BEGIN CERTIFICATE-----
MIIDZjCCAk6gAwIBAgIBATANBgkqhkiG9w0BAQsFADBXMQswCQYDVQQGEwJVUzEO
MAwGA1UECAwFVW5zZXQxDjAMBgNVBAcMBVVuc2V0MQ4wDAYDVQQKDAVVbnNldDEY
MBYGA1UEAwwPd3d3LmV4YW1wbGUuY29tMB4XDTE0MTEyNjAxMDI0NloXDTI0MTEy
MzAxMDI0NlowRzELMAkGA1UEBhMCVVMxDjAMBgNVBAgMBVVuc2V0MQ4wDAYDVQQK
DAVVbnNldDEYMBYGA1UEAwwPd3d3LmV4YW1wbGUuY29tMIIBIjANBgkqhkiG9w0B
AQEFAAOCAQ8AMIIBCgKCAQEAsxNNdsQPuraXTArFYmPk7fRmTrWdiuSDN2gNBfJz
9AcoVgGwLpJy3G8DgOA06We/I6gno79JM1L4Ri7o7LVUHhMwINseBI2lQhSalbxK
EpL/n2DuoaLmWmHeg5VyQCiH8V5K1hnyg1X+sDHPd3sW/MnJdKg08fDas7H2vP69
FePK6Y8UVag0WSoqIPXLm8QWp17kBLwtRYE5N/TwzQdYRJ02FUrTc5X8ja7JDuT+
bTlUEu5GipdUM5H2LgO/vkNDs6gaxueRdVWmgcd30p1qePkFWI68NAm6NjTUiYsF
3DtOxvGC7/C4CUXqmYvg0Bix4MTQqNtJYl+v3++J5OeRUQIDAQABo00wSzAJBgNV
HRMEAjAAMB0GA1UdDgQWBBSHXC1OLx1y1Oe6hxfauWO8K/thljAfBgNVHSMEGDAW
gBSO3VhfrhZ4caMPyh60oye6rTLDyDANBgkqhkiG9w0BAQsFAAOCAQEAqcp43lko
eGAcQw/iLMgG0d4JmL7FA3prVHS/vNLbwgYM/YNe/GvDqoCDhGHbvj5jDTsDVQ8y
UZVGpReRmLbcScDmDuYhk8cpRPeNe8nP/MN+Wr97R1owjPJdr+0j0QxhK6XBd7fA
6UAizRzdtIOBKPDr1Wsr5F8ZRwN9KvCaa0ICVaCfMkDjgzABeWdKX/YIfOHnRT4f
f6337dxVPSlLWEWi5cV7dtDJY/je08uvdFg/TxDzt/uWUTxAB1bbEmaRgKlibrUi
bBUVm+rQ2uoZbZL2xpaO+P+BnBztOs62dkZ7nvX77rykTXRMyIEavFbEy81ur25L
VhsshnK36QuX8Q==
-----END CERTIFICATE-----
