Certificate:
    Data:
        Version: 3 (0x2)
        Serial Number: 1 (0x1)
    Signature Algorithm: sha256WithRSAEncryption
        Issuer: C=US, ST=Unset, L=Unset, O=Unset, CN=www.example.com
        Validity
            Not Before: Dec 12 11:31:33 2014 GMT
            Not After : Dec  9 11:31:33 2024 GMT
        Subject: C=US, ST=Unset, O=Unset, CN=www.example.com
        Subject Public Key Info:
            Public Key Algorithm: rsaEncryption
                Public-Key: (2048 bit)
                Modulus:
                    00:c9:00:5a:21:25:7b:cf:c5:fd:c1:00:ed:fd:89:
                    97:ad:34:2d:63:ae:7c:91:fe:77:99:ff:13:32:10:
                    26:b3:88:7c:45:37:7e:c5:6d:ab:b5:6b:b8:3d:84:
                    f4:04:b3:90:cc:a4:8b:4d:74:08:76:58:f7:d7:0a:
                    f0:69:3f:cb:ff:b8:31:b5:bc:06:71:96:11:cf:dc:
                    ce:7e:87:81:85:41:a7:7f:ab:a3:cf:86:f0:e8:62:
                    56:ca:ab:d2:02:c4:15:6d:e4:d7:c9:cf:d4:e0:b0:
                    ef:8e:68:1d:69:b2:35:d3:4d:a9:87:b2:d4:c6:5b:
                    65:dc:0a:bb:11:18:0f:15:c7:91:48:91:31:39:cb:
                    37:0e:b3:4b:c8:3f:39:d9:0a:85:1e:e0:f4:9d:99:
                    bd:7f:10:4e:78:32:79:85:65:0e:2b:8f:95:bd:a6:
                    25:e9:1a:a6:3a:e6:90:33:35:01:1e:1b:a8:32:75:
                    b2:30:ff:a2:4e:87:ff:41:c4:2f:98:8f:24:b7:05:
                    67:68:aa:80:7a:03:fa:40:02:f2:07:4b:d2:1e:fc:
                    c7:12:3e:06:07:57:7e:25:27:88:d1:ee:fb:fe:d9:
                    2d:1d:2a:99:c7:d3:41:51:ee:90:b7:2a:7f:dc:ef:
                    91:dd:a4:ea:fc:02:8f:52:69:0d:12:e1:99:3e:90:
                    ed:f3
                Exponent: 65537 (0x10001)
        X509v3 extensions:
            X509v3 Basic Constraints: 
                CA:FALSE
            X509v3 Subject Key Identifier: 
                43:4C:61:C7:18:64:F4:C6:56:06:CA:7D:8E:7B:E5:6D:B4:92:30:27
            X509v3 Authority Key Identifier: 
                keyid:02:3F:CB:8B:F5:6F:20:53:25:A5:4F:BF:37:24:9F:18:15:7E:48:2F

    Signature Algorithm: sha256WithRSAEncryption
         9b:82:52:8f:65:6c:65:02:73:2b:b2:0f:28:40:00:b0:10:fd:
         1c:4e:ae:06:89:f6:a8:03:1f:0b:d3:f1:96:4c:17:29:0f:32:
         46:7d:97:64:d4:78:9a:df:97:06:3b:86:d8:c4:28:7e:1b:17:
         d1:76:23:7c:98:5b:b0:6f:94:f4:1a:2c:bb:e8:a8:32:fa:dc:
         32:a0:0a:84:83:fe:b6:81:5c:7b:81:c2:a5:d0:b2:d5:0f:d7:
         62:24:5b:56:3a:8c:d4:d5:4d:81:a0:d7:ce:e1:bc:29:48:78:
         f1:44:a8:e4:34:46:55:13:ab:32:43:78:b3:f3:e8:97:8f:63:
         2f:af:02:1f:07:07:ba:03:57:59:b6:59:b1:89:06:96:5e:51:
         5d:03:91:6c:6f:f2:db:5b:a6:86:42:8d:81:1a:f5:30:90:bb:
         2e:db:a0:f3:6e:ef:00:74:e1:88:1a:7d:1e:62:78:d0:fc:18:
         99:dd:67:48:ee:cc:3e:1d:24:0f:c3:b1:8d:cb:78:52:6a:a7:
         83:59:8c:fb:5a:52:c6:b4:26:be:8f:59:2c:d4:c4:48:41:fe:
         16:76:08:06:db:66:1f:ba:ee:bf:53:ab:cb:59:68:a7:8f:99:
         e4:00:a1:f4:1a:38:ff:83:5d:22:69:72:38:0a:42:13:d4:20:
         d7:ca:e6:19
-----BEGIN CERTIFICATE-----
MIIDZjCCAk6gAwIBAgIBATANBgkqhkiG9w0BAQsFADBXMQswCQYDVQQGEwJVUzEO
MAwGA1UECAwFVW5zZXQxDjAMBgNVBAcMBVVuc2V0MQ4wDAYDVQQKDAVVbnNldDEY
MBYGA1UEAwwPd3d3LmV4YW1wbGUuY29tMB4XDTE0MTIxMjExMzEzM1oXDTI0MTIw
OTExMzEzM1owRzELMAkGA1UEBhMCVVMxDjAMBgNVBAgMBVVuc2V0MQ4wDAYDVQQK
DAVVbnNldDEYMBYGA1UEAwwPd3d3LmV4YW1wbGUuY29tMIIBIjANBgkqhkiG9w0B
AQEFAAOCAQ8AMIIBCgKCAQEAyQBaISV7z8X9wQDt/YmXrTQtY658kf53mf8TMhAm
s4h8RTd+xW2rtWu4PYT0BLOQzKSLTXQIdlj31wrwaT/L/7gxtbwGcZYRz9zOfoeB
hUGnf6ujz4bw6GJWyqvSAsQVbeTXyc/U4LDvjmgdabI1002ph7LUxltl3Aq7ERgP
FceRSJExOcs3DrNLyD852QqFHuD0nZm9fxBOeDJ5hWUOK4+VvaYl6RqmOuaQMzUB
HhuoMnWyMP+iTof/QcQvmI8ktwVnaKqAegP6QALyB0vSHvzHEj4GB1d+JSeI0e77
/tktHSqZx9NBUe6Qtyp/3O+R3aTq/AKPUmkNEuGZPpDt8wIDAQABo00wSzAJBgNV
HRMEAjAAMB0GA1UdDgQWBBRDTGHHGGT0xlYGyn2Oe+VttJIwJzAfBgNVHSMEGDAW
gBQCP8uL9W8gUyWlT783JJ8YFX5ILzANBgkqhkiG9w0BAQsFAAOCAQEAm4JSj2Vs
ZQJzK7IPKEAAsBD9HE6uBon2qAMfC9PxlkwXKQ8yRn2XZNR4mt+XBjuG2MQofhsX
0XYjfJhbsG+U9Bosu+ioMvrcMqAKhIP+toFce4HCpdCy1Q/XYiRbVjqM1NVNgaDX
zuG8KUh48USo5DRGVROrMkN4s/Pol49jL68CHwcHugNXWbZZsYkGll5RXQORbG/y
21umhkKNgRr1MJC7Ltug827vAHThiBp9HmJ40PwYmd1nSO7MPh0kD8Oxjct4Umqn
g1mM+1pSxrQmvo9ZLNTESEH+FnYIBttmH7ruv1Ory1lop4+Z5ACh9Bo4/4NdImly
OApCE9Qg18rmGQ==
-----END CERTIFICATE-----
