Certificate:
    Data:
        Version: 3 (0x2)
        Serial Number: 1 (0x1)
    Signature Algorithm: sha256WithRSAEncryption
        Issuer: C=US, ST=Unset, L=Unset, O=Unset, CN=www.example.com
        Validity
            Not Before: Nov 26 08:26:10 2014 GMT
            Not After : Nov 23 08:26:10 2024 GMT
        Subject: C=US, ST=Unset, O=Unset, CN=www.example.com
        Subject Public Key Info:
            Public Key Algorithm: rsaEncryption
                Public-Key: (2048 bit)
                Modulus:
                    00:e8:35:b5:66:7b:48:d0:75:9d:0e:eb:b7:27:57:
                    03:2e:a9:f2:50:22:91:db:34:f4:43:0d:17:7c:d9:
                    fd:15:21:99:43:db:42:4c:0e:92:4d:9f:4d:f4:54:
                    3d:fe:51:2a:bd:7d:d7:1a:ea:51:23:a8:2e:84:8a:
                    fd:aa:ec:24:09:cc:94:5d:d6:17:c7:e6:d8:4b:30:
                    97:fa:12:3a:cd:4e:87:6c:f6:5d:b7:50:f9:8f:ef:
                    0b:ae:c2:87:89:92:50:a9:af:1d:a6:24:60:12:42:
                    76:00:80:40:39:20:56:7c:30:4d:c5:5d:67:75:fe:
                    e7:f4:22:93:8f:08:cf:26:e9:63:48:68:c6:be:2d:
                    44:80:9b:fa:0b:6b:f0:22:1d:83:dc:2d:f1:6a:4f:
                    71:06:5e:67:c3:a9:5a:99:57:3d:cb:57:aa:0a:da:
                    7c:ba:50:5a:93:1d:0f:7a:82:f3:21:e4:e0:92:bb:
                    df:8d:87:49:68:d6:8c:27:43:7b:bd:52:06:b9:ee:
                    14:a6:90:2d:20:87:bc:01:78:48:c1:0c:8c:ac:ce:
                    5b:bc:9d:3e:89:4e:51:81:d8:0a:0b:d4:4b:b7:fd:
                    f8:53:a1:02:be:a8:c8:c0:e5:ce:20:93:30:dd:1e:
                    c4:cd:63:05:30:02:70:84:cd:85:dd:00:49:1d:ef:
                    56:d9
                Exponent: 65537 (0x10001)
        X509v3 extensions:
            X509v3 Basic Constraints: 
                CA:FALSE
            X509v3 Subject Key Identifier: 
                B8:99:13:EA:20:3B:47:DB:61:3D:EC:CB:FA:BB:FF:E2:42:FA:23:4B
            X509v3 Authority Key Identifier: 
                keyid:67:85:CC:18:16:A5:84:32:C7:2B:08:B3:C0:D3:58:C4:EA:A6:1C:CC

    Signature Algorithm: sha256WithRSAEncryption
         6a:7c:0b:a8:f7:a2:1a:6b:50:70:b4:5b:15:e3:b9:05:f9:9a:
         4e:70:4f:53:9e:af:d1:18:90:c5:7a:a0:d0:d0:9d:f0:86:fe:
         3e:f2:eb:cb:9b:d5:92:9a:28:44:b9:42:05:4f:16:9f:50:59:
         7c:86:85:52:6c:98:54:5c:8e:54:f1:12:81:22:83:79:a2:97:
         c9:22:d8:2b:7b:eb:eb:67:85:24:bb:f0:91:dd:1f:bc:33:4c:
         b3:79:1a:7a:a0:be:a9:65:be:72:a5:5b:45:57:3c:ef:49:3b:
         cc:85:eb:bf:97:a7:1d:e5:31:ff:d8:3a:4d:d0:85:4c:39:09:
         4b:a8:c8:cc:20:cf:9a:7b:fa:1c:c5:46:92:6a:3d:da:c5:68:
         dd:20:e6:94:1f:86:84:fb:a0:1d:50:cc:ba:a0:d5:f4:90:f2:
         f6:4f:31:79:8a:74:fc:d0:fb:14:bd:b4:75:3f:56:96:88:80:
         f9:2c:ca:e0:e2:a0:59:2a:16:c8:a6:28:4e:dc:4a:5c:44:dc:
         e5:a3:fc:f8:70:c4:47:e8:ca:4b:d8:89:40:11:52:d1:92:e2:
         53:e9:26:ba:27:ae:bf:95:e2:e4:b4:05:41:8b:1a:8e:83:ba:
         60:e5:1d:ba:34:c9:99:05:6b:8c:46:70:a8:88:ea:3d:ee:3b:
         c3:f2:22:f5
-----BEGIN CERTIFICATE-----
MIIDZjCCAk6gAwIBAgIBATANBgkqhkiG9w0BAQsFADBXMQswCQYDVQQGEwJVUzEO
MAwGA1UECAwFVW5zZXQxDjAMBgNVBAcMBVVuc2V0MQ4wDAYDVQQKDAVVbnNldDEY
MBYGA1UEAwwPd3d3LmV4YW1wbGUuY29tMB4XDTE0MTEyNjA4MjYxMFoXDTI0MTEy
MzA4MjYxMFowRzELMAkGA1UEBhMCVVMxDjAMBgNVBAgMBVVuc2V0MQ4wDAYDVQQK
DAVVbnNldDEYMBYGA1UEAwwPd3d3LmV4YW1wbGUuY29tMIIBIjANBgkqhkiG9w0B
AQEFAAOCAQ8AMIIBCgKCAQEA6DW1ZntI0HWdDuu3J1cDLqnyUCKR2zT0Qw0XfNn9
FSGZQ9tCTA6STZ9N9FQ9/lEqvX3XGupRI6guhIr9quwkCcyUXdYXx+bYSzCX+hI6
zU6HbPZdt1D5j+8LrsKHiZJQqa8dpiRgEkJ2AIBAOSBWfDBNxV1ndf7n9CKTjwjP
JuljSGjGvi1EgJv6C2vwIh2D3C3xak9xBl5nw6lamVc9y1eqCtp8ulBakx0PeoLz
IeTgkrvfjYdJaNaMJ0N7vVIGue4UppAtIIe8AXhIwQyMrM5bvJ0+iU5RgdgKC9RL
t/34U6ECvqjIwOXOIJMw3R7EzWMFMAJwhM2F3QBJHe9W2QIDAQABo00wSzAJBgNV
HRMEAjAAMB0GA1UdDgQWBBS4mRPqIDtH22E97Mv6u//iQvojSzAfBgNVHSMEGDAW
gBRnhcwYFqWEMscrCLPA01jE6qYczDANBgkqhkiG9w0BAQsFAAOCAQEAanwLqPei
GmtQcLRbFeO5BfmaTnBPU56v0RiQxXqg0NCd8Ib+PvLry5vVkpooRLlCBU8Wn1BZ
fIaFUmyYVFyOVPESgSKDeaKXySLYK3vr62eFJLvwkd0fvDNMs3kaeqC+qWW+cqVb
RVc870k7zIXrv5enHeUx/9g6TdCFTDkJS6jIzCDPmnv6HMVGkmo92sVo3SDmlB+G
hPugHVDMuqDV9JDy9k8xeYp0/ND7FL20dT9WloiA+SzK4OKgWSoWyKYoTtxKXETc
5aP8+HDER+jKS9iJQBFS0ZLiU+kmuieuv5Xi5LQFQYsajoO6YOUdujTJmQVrjEZw
qIjqPe47w/Ii9Q==
-----END CERTIFICATE-----
