Certificate:
    Data:
        Version: 3 (0x2)
        Serial Number: 1 (0x1)
    Signature Algorithm: sha1WithRSAEncryption
        Issuer: C=US, ST=Unset, L=Unset, O=Unset, CN=www.example.com
        Validity
            Not Before: Oct 11 22:31:45 2014 GMT
            Not After : Oct  8 22:31:45 2024 GMT
        Subject: C=US, ST=Unset, O=Unset, CN=www.example.com
        Subject Public Key Info:
            Public Key Algorithm: rsaEncryption
                Public-Key: (2048 bit)
                Modulus:
                    00:d5:56:95:a0:66:72:e3:ea:44:d3:a2:02:18:ba:
                    6d:63:b8:33:d3:68:89:4e:b9:d8:5e:d5:c9:c4:0f:
                    df:82:6b:09:64:7b:59:a8:dc:a9:6b:73:5f:af:d5:
                    97:dc:f0:48:6b:7d:d7:6b:a3:d9:0c:17:a2:b4:c9:
                    e0:b7:b5:a5:b4:df:8a:db:a0:4b:9f:f7:4d:66:37:
                    3e:b2:f5:04:97:29:a1:18:2c:27:33:b3:b5:1d:cb:
                    13:f8:2c:bf:1b:2f:a8:4f:75:91:41:e2:de:7e:25:
                    d9:da:82:86:d3:59:7a:ff:d6:e3:53:ee:ed:17:77:
                    d6:9d:bf:e1:6d:82:d4:1b:90:11:9b:e9:f4:86:ae:
                    be:f2:52:7f:15:e3:01:90:86:3d:a7:68:b8:52:78:
                    44:66:5d:8b:c8:ac:4a:28:0a:cc:bf:3e:85:7d:ec:
                    b5:ab:0c:55:e4:8c:ed:98:62:40:55:6e:c6:7e:85:
                    13:cb:aa:4b:8d:68:19:05:52:07:44:43:87:8f:41:
                    25:5b:32:1f:43:cc:c1:e8:c3:e0:d3:8d:c7:c2:eb:
                    09:19:bc:47:5a:c3:56:a7:7e:26:5d:5f:a4:2a:3e:
                    fa:97:d3:6c:d5:40:b8:b5:87:4b:00:29:97:88:f5:
                    13:49:84:70:3a:2f:7f:a3:b2:63:5b:d5:18:7a:32:
                    44:3f
                Exponent: 65537 (0x10001)
        X509v3 extensions:
            X509v3 Basic Constraints: 
                CA:FALSE
            X509v3 Subject Key Identifier: 
                D4:D4:07:83:D2:45:90:1A:F1:B6:76:51:D3:6D:DA:BF:DC:7F:05:00
            X509v3 Authority Key Identifier: 
                keyid:FB:82:5A:32:EC:3A:81:99:3B:A9:A5:23:9B:3B:53:37:5E:B2:A7:D3

    Signature Algorithm: sha1WithRSAEncryption
         3a:58:c3:03:5b:4c:b5:ee:33:b5:b4:79:2b:67:1a:90:e2:30:
         fb:b7:93:0e:2e:58:bf:e0:d3:84:13:a0:79:e0:5f:8c:3c:7e:
         a5:86:f6:7a:f9:3b:5b:75:ad:8d:27:a2:3b:48:fd:86:80:3c:
         0c:9f:9f:f5:a3:14:26:e1:68:2e:f2:27:e5:ab:86:3b:22:fb:
         15:05:07:df:4b:22:27:6b:3e:3f:e4:3a:26:4a:23:cc:92:b7:
         4a:d9:cd:43:4f:c0:32:4e:38:bf:43:48:65:29:bb:b6:87:9e:
         49:99:03:19:3d:89:34:81:b8:e3:ee:65:14:10:59:67:12:11:
         fe:72:0a:c9:61:07:6f:8d:4d:ba:47:8b:98:c0:56:c6:87:24:
         5e:9e:d3:2b:20:10:3f:d0:83:ab:f6:68:95:fc:22:2a:72:54:
         2e:b8:59:54:24:34:15:9d:09:13:4d:e6:30:c5:dc:20:e2:ab:
         8d:97:9a:cb:9f:6f:b2:b7:fb:87:dc:f6:44:10:be:1b:c4:53:
         a8:56:75:22:86:63:f1:e2:ba:b2:5a:55:9f:61:b8:f5:32:f0:
         c0:cd:25:b8:e0:a8:b1:bc:aa:3f:4f:e9:31:9c:ef:7a:0c:76:
         87:9d:8d:94:d3:31:e0:73:eb:81:bc:61:ad:c1:e9:b3:a5:a9:
         7e:97:2b:5a
-----BEGIN CERTIFICATE-----
MIIDZjCCAk6gAwIBAgIBATANBgkqhkiG9w0BAQUFADBXMQswCQYDVQQGEwJVUzEO
MAwGA1UECAwFVW5zZXQxDjAMBgNVBAcMBVVuc2V0MQ4wDAYDVQQKDAVVbnNldDEY
MBYGA1UEAwwPd3d3LmV4YW1wbGUuY29tMB4XDTE0MTAxMTIyMzE0NVoXDTI0MTAw
ODIyMzE0NVowRzELMAkGA1UEBhMCVVMxDjAMBgNVBAgMBVVuc2V0MQ4wDAYDVQQK
DAVVbnNldDEYMBYGA1UEAwwPd3d3LmV4YW1wbGUuY29tMIIBIjANBgkqhkiG9w0B
AQEFAAOCAQ8AMIIBCgKCAQEA1VaVoGZy4+pE06ICGLptY7gz02iJTrnYXtXJxA/f
gmsJZHtZqNypa3Nfr9WX3PBIa33Xa6PZDBeitMngt7WltN+K26BLn/dNZjc+svUE
lymhGCwnM7O1HcsT+Cy/Gy+oT3WRQeLefiXZ2oKG01l6/9bjU+7tF3fWnb/hbYLU
G5ARm+n0hq6+8lJ/FeMBkIY9p2i4UnhEZl2LyKxKKArMvz6Ffey1qwxV5IztmGJA
VW7GfoUTy6pLjWgZBVIHREOHj0ElWzIfQ8zB6MPg043HwusJGbxHWsNWp34mXV+k
Kj76l9Ns1UC4tYdLACmXiPUTSYRwOi9/o7JjW9UYejJEPwIDAQABo00wSzAJBgNV
HRMEAjAAMB0GA1UdDgQWBBTU1AeD0kWQGvG2dlHTbdq/3H8FADAfBgNVHSMEGDAW
gBT7gloy7DqBmTuppSObO1M3XrKn0zANBgkqhkiG9w0BAQUFAAOCAQEAOljDA1tM
te4ztbR5K2cakOIw+7eTDi5Yv+DThBOgeeBfjDx+pYb2evk7W3WtjSeiO0j9hoA8
DJ+f9aMUJuFoLvIn5auGOyL7FQUH30siJ2s+P+Q6JkojzJK3StnNQ0/AMk44v0NI
ZSm7toeeSZkDGT2JNIG44+5lFBBZZxIR/nIKyWEHb41NukeLmMBWxockXp7TKyAQ
P9CDq/ZolfwiKnJULrhZVCQ0FZ0JE03mMMXcIOKrjZeay59vsrf7h9z2RBC+G8RT
qFZ1IoZj8eK6slpVn2G49TLwwM0luOCosbyqP0/pMZzvegx2h52NlNMx4HPrgbxh
rcHps6WpfpcrWg==
-----END CERTIFICATE-----
