Certificate:
    Data:
        Version: 3 (0x2)
        Serial Number: 1 (0x1)
    Signature Algorithm: sha256WithRSAEncryption
        Issuer: C=US, ST=Unset, L=Unset, O=Unset, CN=www.example.com
        Validity
            Not Before: Dec 12 13:41:39 2014 GMT
            Not After : Dec  9 13:41:39 2024 GMT
        Subject: C=US, ST=Unset, O=Unset, CN=www.example.com
        Subject Public Key Info:
            Public Key Algorithm: rsaEncryption
                Public-Key: (2048 bit)
                Modulus:
                    00:a5:4d:52:4f:ab:57:09:c4:73:6d:24:d4:b0:d6:
                    31:51:f4:86:67:09:8b:51:d8:87:7d:a5:d9:27:0b:
                    3e:46:d3:b1:3b:12:64:a3:30:0a:08:8c:a7:53:64:
                    1d:bb:01:52:13:c6:05:d4:bc:e8:6e:6b:8f:64:6f:
                    ab:c9:c5:c1:b2:60:64:3c:8c:64:81:46:8f:61:e8:
                    fc:03:26:0e:d0:8b:dd:97:c0:33:04:55:c2:47:7e:
                    30:fc:4d:f7:17:f2:ae:13:65:ec:f7:7c:83:0e:31:
                    05:f0:99:53:dd:fe:47:b6:ab:3f:95:bb:7b:0e:e2:
                    d1:7e:1b:75:6f:73:3c:5e:e0:1a:d9:3e:5a:bf:08:
                    6e:b3:43:2d:94:67:33:1a:1c:6d:98:ad:77:65:7f:
                    d7:91:a4:22:b0:b2:be:e7:76:13:46:76:73:d7:f4:
                    43:c5:7d:c5:2b:91:07:39:de:fc:b8:bd:27:37:06:
                    88:9b:06:69:53:f9:ff:21:d4:e6:7c:00:1d:b9:cf:
                    73:45:06:d0:c4:a8:8a:4c:48:e5:31:a1:94:44:2a:
                    42:d3:d9:ad:e5:c2:a5:81:7c:c8:4a:ee:00:41:86:
                    20:c2:a6:0d:c6:de:9b:b4:85:dc:f2:59:fe:58:51:
                    0b:b9:17:1d:01:b0:ef:d4:f2:36:6a:c8:10:e8:33:
                    fc:d1
                Exponent: 65537 (0x10001)
        X509v3 extensions:
            X509v3 Basic Constraints: 
                CA:FALSE
            X509v3 Subject Key Identifier: 
                B0:F3:C3:1F:F7:6E:7D:F2:0F:29:2D:1B:43:AD:F4:F0:44:5A:3D:5E
            X509v3 Authority Key Identifier: 
                keyid:97:03:81:3E:73:76:8C:A4:66:0A:27:D6:64:D0:7E:2A:18:F3:90:CE

    Signature Algorithm: sha256WithRSAEncryption
         74:03:6f:98:5c:d1:1b:14:4e:14:07:a1:44:41:2d:9b:70:8c:
         ed:c9:e3:1a:27:35:60:76:d9:a1:8d:aa:12:62:00:99:1e:f9:
         fc:c0:21:fd:6d:2c:fd:ce:d3:51:ad:07:fc:50:27:74:36:38:
         d7:20:41:47:10:36:a8:96:84:a0:c5:a2:2c:a1:a8:45:96:d8:
         b0:73:02:96:63:b7:1c:aa:43:2b:6e:74:65:b0:57:08:2f:16:
         a6:00:b8:42:98:a3:57:27:20:3b:1e:fb:62:62:3f:e3:a5:5a:
         ae:5f:55:fa:5a:8d:24:06:86:16:e4:a1:f4:fd:54:44:3f:e7:
         51:d6:8c:17:25:cc:2d:6a:c6:54:f0:82:0d:db:71:f4:0b:87:
         88:af:9b:aa:2f:6c:96:e0:e5:8f:7e:69:fe:4b:f6:ac:01:8d:
         1d:57:b1:60:ab:b4:9b:24:48:16:2b:cf:40:6b:d8:ac:13:ff:
         3c:ea:bf:5a:72:8b:e4:6c:f3:31:11:00:c8:39:fb:5e:fa:f5:
         1b:7c:f3:84:e3:4b:d9:1f:dc:6d:29:6a:09:39:6a:e3:fe:ee:
         3d:1d:f4:fb:5c:b9:1b:79:ec:09:10:43:be:85:a6:c8:b1:75:
         c0:fe:eb:86:a2:ee:d7:fc:a2:fe:09:92:e5:49:da:b1:87:a1:
         a9:5e:f2:2d
-----BEGIN CERTIFICATE-----
MIIDZjCCAk6gAwIBAgIBATANBgkqhkiG9w0BAQsFADBXMQswCQYDVQQGEwJVUzEO
MAwGA1UECAwFVW5zZXQxDjAMBgNVBAcMBVVuc2V0MQ4wDAYDVQQKDAVVbnNldDEY
MBYGA1UEAwwPd3d3LmV4YW1wbGUuY29tMB4XDTE0MTIxMjEzNDEzOVoXDTI0MTIw
OTEzNDEzOVowRzELMAkGA1UEBhMCVVMxDjAMBgNVBAgMBVVuc2V0MQ4wDAYDVQQK
DAVVbnNldDEYMBYGA1UEAwwPd3d3LmV4YW1wbGUuY29tMIIBIjANBgkqhkiG9w0B
AQEFAAOCAQ8AMIIBCgKCAQEApU1ST6tXCcRzbSTUsNYxUfSGZwmLUdiHfaXZJws+
RtOxOxJkozAKCIynU2QduwFSE8YF1LzobmuPZG+rycXBsmBkPIxkgUaPYej8AyYO
0Ivdl8AzBFXCR34w/E33F/KuE2Xs93yDDjEF8JlT3f5Htqs/lbt7DuLRfht1b3M8
XuAa2T5avwhus0MtlGczGhxtmK13ZX/XkaQisLK+53YTRnZz1/RDxX3FK5EHOd78
uL0nNwaImwZpU/n/IdTmfAAduc9zRQbQxKiKTEjlMaGURCpC09mt5cKlgXzISu4A
QYYgwqYNxt6btIXc8ln+WFELuRcdAbDv1PI2asgQ6DP80QIDAQABo00wSzAJBgNV
HRMEAjAAMB0GA1UdDgQWBBSw88Mf92598g8pLRtDrfTwRFo9XjAfBgNVHSMEGDAW
gBSXA4E+c3aMpGYKJ9Zk0H4qGPOQzjANBgkqhkiG9w0BAQsFAAOCAQEAdANvmFzR
GxROFAehREEtm3CM7cnjGic1YHbZoY2qEmIAmR75/MAh/W0s/c7TUa0H/FAndDY4
1yBBRxA2qJaEoMWiLKGoRZbYsHMClmO3HKpDK250ZbBXCC8WpgC4QpijVycgOx77
YmI/46Varl9V+lqNJAaGFuSh9P1URD/nUdaMFyXMLWrGVPCCDdtx9AuHiK+bqi9s
luDlj35p/kv2rAGNHVexYKu0myRIFivPQGvYrBP/POq/WnKL5GzzMREAyDn7Xvr1
G3zzhONL2R/cbSlqCTlq4/7uPR30+1y5G3nsCRBDvoWmyLF1wP7rhqLu1/yi/gmS
5UnasYehqV7yLQ==
-----END CERTIFICATE-----
