Certificate:
    Data:
        Version: 3 (0x2)
        Serial Number: 1 (0x1)
    Signature Algorithm: sha256WithRSAEncryption
        Issuer: C=US, ST=Unset, L=Unset, O=Unset, CN=www.example.com
        Validity
            Not Before: Nov 26 00:44:33 2014 GMT
            Not After : Nov 23 00:44:33 2024 GMT
        Subject: C=US, ST=Unset, O=Unset, CN=www.example.com
        Subject Public Key Info:
            Public Key Algorithm: rsaEncryption
                Public-Key: (2048 bit)
                Modulus:
                    00:f5:db:e2:4c:84:30:e6:4c:46:2c:1a:83:30:20:
                    2c:c8:50:eb:12:c1:f9:4e:e4:e1:56:d6:28:2f:42:
                    08:fc:ae:fe:55:2f:a1:fe:34:19:f7:ab:9b:59:93:
                    eb:aa:55:59:0f:28:a8:d5:4c:cd:4a:9f:10:a8:c2:
                    bd:3a:e5:3c:f4:d7:e1:57:4d:25:97:86:ad:ab:b1:
                    69:5f:7f:dc:35:79:20:ba:1e:a7:a8:5f:3d:56:03:
                    6d:8c:ea:fc:1d:d1:7c:6d:6f:4d:c2:a6:37:82:57:
                    96:99:40:0a:ec:4f:97:65:22:70:22:e4:0b:37:6f:
                    27:4d:0c:13:ba:02:b5:54:24:44:7d:86:90:f5:02:
                    28:f2:fa:45:70:3f:65:52:02:53:b4:9f:52:04:cf:
                    d8:cb:33:90:e6:4b:2e:01:f6:b3:c4:8b:4a:56:06:
                    d6:5f:8c:8f:50:f9:3d:b1:61:6e:33:03:64:50:b4:
                    7a:2a:b8:65:08:09:b3:87:ae:77:a9:de:dd:59:8a:
                    0e:fe:7a:de:30:cc:af:80:d4:76:2e:b9:b3:7e:d3:
                    3c:12:43:29:d1:95:19:6a:e8:27:1f:74:5a:ae:1b:
                    1c:1d:5e:0d:a9:81:b5:bd:a7:a1:15:7b:ec:40:21:
                    25:cb:7d:8d:9c:91:c2:9a:f6:62:e3:2e:ac:40:b5:
                    39:99
                Exponent: 65537 (0x10001)
        X509v3 extensions:
            X509v3 Basic Constraints: 
                CA:FALSE
            X509v3 Subject Key Identifier: 
                08:16:83:98:25:44:CC:17:44:61:C6:FE:18:64:22:4B:EC:F7:21:C8
            X509v3 Authority Key Identifier: 
                keyid:6D:42:BF:E6:9D:33:E6:D5:94:92:4D:A4:BE:7F:DA:98:EA:CA:D0:91

    Signature Algorithm: sha256WithRSAEncryption
         48:53:91:51:25:ed:14:63:7e:a5:4d:4a:82:75:6a:2f:96:94:
         31:14:0d:1e:87:ab:fb:81:70:bb:1a:c0:30:15:31:95:57:2f:
         8e:3f:b4:58:8c:2d:09:7d:49:a8:37:ff:ea:d2:5b:ad:1e:84:
         cf:12:eb:dc:3e:a8:60:3e:3e:4b:a8:e9:cd:c9:e2:60:4b:3c:
         b1:76:37:df:94:53:a2:a3:79:26:94:02:38:83:dd:1d:13:5e:
         61:26:6f:a0:eb:b5:38:f4:93:11:35:94:72:88:c1:1b:5f:82:
         9b:9b:9b:c4:71:be:ab:f3:dd:34:eb:0e:78:f7:76:9e:59:82:
         4f:2c:b9:ec:6c:8e:a1:69:70:dc:ca:95:65:cb:da:af:5a:bb:
         8e:2a:cc:70:31:27:f6:33:76:5f:9c:db:c6:f4:6d:48:69:28:
         9a:33:a6:ec:ab:42:87:42:29:63:7b:48:ca:e5:8a:db:02:4b:
         ed:f8:26:ba:1c:73:50:22:99:c5:4a:76:ac:1e:14:61:37:f2:
         68:72:92:27:48:17:3f:20:7e:4f:9e:0f:26:9b:f0:ae:b9:75:
         e9:bb:9b:6c:62:e2:e5:2b:bd:be:fd:5d:f0:a9:0c:5d:79:5d:
         f8:2e:dc:65:57:3d:3d:ac:e9:a6:ae:5b:e1:d6:41:b6:93:4d:
         83:c3:d8:b6
-----BEGIN CERTIFICATE-----
MIIDZjCCAk6gAwIBAgIBATANBgkqhkiG9w0BAQsFADBXMQswCQYDVQQGEwJVUzEO
MAwGA1UECAwFVW5zZXQxDjAMBgNVBAcMBVVuc2V0MQ4wDAYDVQQKDAVVbnNldDEY
MBYGA1UEAwwPd3d3LmV4YW1wbGUuY29tMB4XDTE0MTEyNjAwNDQzM1oXDTI0MTEy
MzAwNDQzM1owRzELMAkGA1UEBhMCVVMxDjAMBgNVBAgMBVVuc2V0MQ4wDAYDVQQK
DAVVbnNldDEYMBYGA1UEAwwPd3d3LmV4YW1wbGUuY29tMIIBIjANBgkqhkiG9w0B
AQEFAAOCAQ8AMIIBCgKCAQEA9dviTIQw5kxGLBqDMCAsyFDrEsH5TuThVtYoL0II
/K7+VS+h/jQZ96ubWZPrqlVZDyio1UzNSp8QqMK9OuU89NfhV00ll4atq7FpX3/c
NXkguh6nqF89VgNtjOr8HdF8bW9NwqY3gleWmUAK7E+XZSJwIuQLN28nTQwTugK1
VCREfYaQ9QIo8vpFcD9lUgJTtJ9SBM/YyzOQ5ksuAfazxItKVgbWX4yPUPk9sWFu
MwNkULR6KrhlCAmzh653qd7dWYoO/nreMMyvgNR2LrmzftM8EkMp0ZUZaugnH3Ra
rhscHV4NqYG1vaehFXvsQCEly32NnJHCmvZi4y6sQLU5mQIDAQABo00wSzAJBgNV
HRMEAjAAMB0GA1UdDgQWBBQIFoOYJUTMF0Rhxv4YZCJL7PchyDAfBgNVHSMEGDAW
gBRtQr/mnTPm1ZSSTaS+f9qY6srQkTANBgkqhkiG9w0BAQsFAAOCAQEASFORUSXt
FGN+pU1KgnVqL5aUMRQNHoer+4FwuxrAMBUxlVcvjj+0WIwtCX1JqDf/6tJbrR6E
zxLr3D6oYD4+S6jpzcniYEs8sXY335RToqN5JpQCOIPdHRNeYSZvoOu1OPSTETWU
cojBG1+Cm5ubxHG+q/PdNOsOePd2nlmCTyy57GyOoWlw3MqVZcvar1q7jirMcDEn
9jN2X5zbxvRtSGkomjOm7KtCh0IpY3tIyuWK2wJL7fgmuhxzUCKZxUp2rB4UYTfy
aHKSJ0gXPyB+T54PJpvwrrl16bubbGLi5Su9vv1d8KkMXXld+C7cZVc9Pazppq5b
4dZBtpNNg8PYtg==
-----END CERTIFICATE-----
