Certificate:
    Data:
        Version: 3 (0x2)
        Serial Number: 1 (0x1)
    Signature Algorithm: sha256WithRSAEncryption
        Issuer: C=US, ST=Unset, L=Unset, O=Unset, CN=www.example.com
        Validity
            Not Before: Dec 12 12:06:30 2014 GMT
            Not After : Dec  9 12:06:30 2024 GMT
        Subject: C=US, ST=Unset, O=Unset, CN=www.example.com
        Subject Public Key Info:
            Public Key Algorithm: rsaEncryption
                Public-Key: (2048 bit)
                Modulus:
                    00:da:4d:2e:20:3d:30:f1:02:3d:1e:ca:50:6e:18:
                    e9:3d:e6:96:0d:20:99:a8:53:60:18:77:2a:bd:5a:
                    4c:24:52:3a:4e:35:c3:ae:60:f8:da:f1:f5:a7:de:
                    b7:95:e3:6e:cb:23:f9:e3:a6:af:fe:ab:a6:ea:83:
                    d3:4a:1a:39:e6:d2:ca:b2:26:7c:b8:95:86:98:f7:
                    e1:94:af:4e:83:d7:08:bf:3f:2a:89:b2:36:7e:08:
                    49:a0:74:55:72:20:70:a0:78:01:2e:23:10:b4:48:
                    d2:b0:2f:67:ac:17:ca:8a:94:2a:f5:a4:da:2e:97:
                    1c:e8:cd:b6:85:ba:ee:8a:8a:b0:d5:53:53:eb:70:
                    9f:e5:b7:07:00:e9:9e:66:1a:ae:87:07:f0:23:30:
                    b1:48:66:76:64:0a:1f:eb:e2:c6:bf:32:5f:cd:57:
                    b7:7c:f4:a0:72:77:eb:79:82:00:f3:1b:6a:60:f5:
                    6a:e7:c7:e8:db:74:a6:bc:2e:f2:97:a9:9d:2a:fd:
                    40:ae:60:ed:fd:dd:80:7c:c5:51:f8:02:85:99:e5:
                    3f:1e:a9:b6:fe:46:48:8f:3d:9c:74:26:a4:45:88:
                    06:d1:dc:b5:c8:3c:35:86:32:59:31:93:25:ce:8b:
                    97:ab:b2:c5:3b:42:8e:0a:49:1e:ec:63:04:f9:3d:
                    b4:b3
                Exponent: 65537 (0x10001)
        X509v3 extensions:
            X509v3 Basic Constraints: 
                CA:FALSE
            X509v3 Subject Key Identifier: 
                A8:4A:66:B4:E4:67:67:A6:A9:D3:A2:22:40:E3:27:95:51:1B:8C:79
            X509v3 Authority Key Identifier: 
                keyid:24:95:3A:87:42:E2:6B:AD:1E:A9:26:82:A1:C4:89:8A:20:1E:FA:09

    Signature Algorithm: sha256WithRSAEncryption
         d0:a5:e8:43:bd:39:f6:27:bf:87:c1:66:15:51:ff:36:24:2d:
         5d:d3:fc:41:1e:5f:2a:53:a7:9f:4d:51:a9:8f:a2:a0:b0:ba:
         4f:09:c8:4c:01:34:00:27:40:f0:2e:d3:6e:05:30:3b:da:78:
         a1:89:88:f4:89:b4:69:6e:21:12:05:00:29:6b:be:29:e2:02:
         d6:b3:47:a0:ff:10:8c:30:82:8f:38:92:84:10:56:aa:72:d9:
         f2:dd:43:92:4e:2e:21:08:0e:f3:4b:f3:42:be:8b:5b:06:d7:
         8a:18:65:87:38:05:b9:ad:88:c1:01:70:16:98:07:cb:6b:8a:
         c5:d6:0f:0f:e8:4f:7f:bb:30:86:06:a1:14:85:d9:90:61:8a:
         f6:8a:ef:5f:77:6c:72:11:c1:2d:34:c1:37:66:7d:2d:03:33:
         02:4b:e1:93:4d:18:1e:c9:5c:0b:8a:55:79:9c:42:de:61:a8:
         79:f3:9b:89:1a:c0:eb:71:a3:43:bc:95:10:ec:0e:88:b9:5a:
         91:18:5f:ee:ab:c1:47:ae:c1:ad:2d:00:87:8c:bf:69:4d:95:
         44:b7:aa:a1:9b:19:6c:85:48:8b:39:02:60:5a:ac:9c:5d:c0:
         9f:96:f6:56:7b:f6:cc:d4:6b:da:56:ab:34:62:90:57:fc:64:
         49:07:fa:19
-----BEGIN CERTIFICATE-----
MIIDZjCCAk6gAwIBAgIBATANBgkqhkiG9w0BAQsFADBXMQswCQYDVQQGEwJVUzEO
MAwGA1UECAwFVW5zZXQxDjAMBgNVBAcMBVVuc2V0MQ4wDAYDVQQKDAVVbnNldDEY
MBYGA1UEAwwPd3d3LmV4YW1wbGUuY29tMB4XDTE0MTIxMjEyMDYzMFoXDTI0MTIw
OTEyMDYzMFowRzELMAkGA1UEBhMCVVMxDjAMBgNVBAgMBVVuc2V0MQ4wDAYDVQQK
DAVVbnNldDEYMBYGA1UEAwwPd3d3LmV4YW1wbGUuY29tMIIBIjANBgkqhkiG9w0B
AQEFAAOCAQ8AMIIBCgKCAQEA2k0uID0w8QI9HspQbhjpPeaWDSCZqFNgGHcqvVpM
JFI6TjXDrmD42vH1p963leNuyyP546av/qum6oPTSho55tLKsiZ8uJWGmPfhlK9O
g9cIvz8qibI2fghJoHRVciBwoHgBLiMQtEjSsC9nrBfKipQq9aTaLpcc6M22hbru
ioqw1VNT63Cf5bcHAOmeZhquhwfwIzCxSGZ2ZAof6+LGvzJfzVe3fPSgcnfreYIA
8xtqYPVq58fo23SmvC7yl6mdKv1ArmDt/d2AfMVR+AKFmeU/Hqm2/kZIjz2cdCak
RYgG0dy1yDw1hjJZMZMlzouXq7LFO0KOCkke7GME+T20swIDAQABo00wSzAJBgNV
HRMEAjAAMB0GA1UdDgQWBBSoSma05GdnpqnToiJA4yeVURuMeTAfBgNVHSMEGDAW
gBQklTqHQuJrrR6pJoKhxImKIB76CTANBgkqhkiG9w0BAQsFAAOCAQEA0KXoQ705
9ie/h8FmFVH/NiQtXdP8QR5fKlOnn01RqY+ioLC6TwnITAE0ACdA8C7TbgUwO9p4
oYmI9Im0aW4hEgUAKWu+KeIC1rNHoP8QjDCCjziShBBWqnLZ8t1Dkk4uIQgO80vz
Qr6LWwbXihhlhzgFua2IwQFwFpgHy2uKxdYPD+hPf7swhgahFIXZkGGK9orvX3ds
chHBLTTBN2Z9LQMzAkvhk00YHslcC4pVeZxC3mGoefObiRrA63GjQ7yVEOwOiLla
kRhf7qvBR67BrS0Ah4y/aU2VRLeqoZsZbIVIizkCYFqsnF3An5b2Vnv2zNRr2lar
NGKQV/xkSQf6GQ==
-----END CERTIFICATE-----
