Certificate:
    Data:
        Version: 3 (0x2)
        Serial Number: 1 (0x1)
    Signature Algorithm: sha256WithRSAEncryption
        Issuer: C=US, ST=Unset, L=Unset, O=Unset, CN=www.example.com
        Validity
            Not Before: Nov 26 04:13:35 2014 GMT
            Not After : Nov 23 04:13:35 2024 GMT
        Subject: C=US, ST=Unset, O=Unset, CN=www.example.com
        Subject Public Key Info:
            Public Key Algorithm: rsaEncryption
                Public-Key: (2048 bit)
                Modulus:
                    00:be:a1:2d:6d:a9:53:0a:24:2a:36:ec:78:de:13:
                    73:06:38:41:e0:6d:08:14:28:e4:c7:23:6d:88:b2:
                    92:cf:e9:2a:ba:ca:c0:8c:6b:7e:01:ee:08:5d:b6:
                    eb:5f:fe:d1:01:97:df:78:bc:e4:b3:e2:14:d2:44:
                    57:c2:3c:66:77:b5:8a:34:cd:ea:e7:0a:5d:1c:c7:
                    18:4f:ca:07:09:92:2b:40:e7:74:75:dd:ea:02:01:
                    aa:7c:59:1f:cf:e4:14:20:df:af:71:6b:16:63:c7:
                    9e:48:ae:91:d7:98:32:31:84:9c:90:9e:b1:81:b2:
                    95:77:66:15:a1:fd:3d:24:0e:7f:c4:56:98:50:1a:
                    54:b7:6f:9e:92:0b:06:cb:0b:bd:b7:a1:2b:4c:cd:
                    94:ad:c7:c0:a1:c5:10:d7:94:b5:e8:33:d9:b5:1e:
                    8c:87:03:f1:2f:36:dc:9e:a1:bd:81:b6:b6:26:e2:
                    a8:6b:41:91:97:0d:f2:58:2a:34:7e:77:b8:fd:77:
                    d0:76:12:46:83:13:17:da:48:81:bf:63:a4:08:02:
                    e8:06:be:70:5e:39:40:8d:75:dd:53:2c:45:ea:32:
                    c6:ad:8a:31:fc:83:4c:3b:78:28:03:b6:7b:e1:b3:
                    1f:c7:2e:88:93:a0:6e:f3:f8:82:04:d7:72:13:4a:
                    ae:07
                Exponent: 65537 (0x10001)
        X509v3 extensions:
            X509v3 Basic Constraints: 
                CA:FALSE
            X509v3 Subject Key Identifier: 
                28:E0:37:39:38:2E:05:BD:86:CD:95:B0:FA:B6:B5:D7:31:FE:0F:BF
            X509v3 Authority Key Identifier: 
                keyid:BC:82:F9:92:A1:B5:10:78:F8:C4:66:76:8C:F2:21:58:69:ED:84:36

    Signature Algorithm: sha256WithRSAEncryption
         29:ad:95:17:c3:63:c1:89:38:31:33:23:c0:08:e0:40:cd:2c:
         ea:d7:61:3d:29:30:8a:eb:28:69:93:8e:46:95:2d:a7:6d:02:
         d1:79:35:61:b2:6c:a8:f7:d1:75:54:7b:27:2c:75:c1:fd:35:
         3e:f9:21:3e:62:08:ed:88:08:d9:41:da:b3:a3:20:3f:4d:ba:
         92:28:98:8d:85:8e:43:35:9b:31:ed:c5:81:f1:86:f1:a5:f2:
         c7:44:9a:10:a3:2e:eb:ec:f0:d2:8d:c5:a1:38:f5:84:9f:fb:
         c9:c3:15:bb:c4:1b:1d:da:4f:24:2e:b2:11:82:b3:ab:03:35:
         27:30:97:95:8e:1b:76:ed:11:30:12:1b:05:21:2b:bf:c0:47:
         62:27:56:96:07:5e:10:b5:a6:47:d5:e7:01:b1:1a:a5:4f:c4:
         7f:b7:c3:39:c7:ad:fe:dd:48:78:c9:e9:d3:e2:90:be:4e:0d:
         99:c9:dc:ec:d3:23:26:38:99:2b:38:18:a9:d2:fb:56:d6:d4:
         3b:1e:5b:ed:15:3f:82:d4:52:12:44:9e:43:9d:48:5f:ef:f9:
         c0:c0:84:9c:fe:5a:8d:04:e6:72:08:7c:1e:e3:fb:f3:f8:f1:
         71:83:5e:0e:9b:21:bf:ba:b8:ed:82:99:ca:66:ea:9d:27:e7:
         91:49:d2:80
-----BEGIN CERTIFICATE-----
MIIDZjCCAk6gAwIBAgIBATANBgkqhkiG9w0BAQsFADBXMQswCQYDVQQGEwJVUzEO
MAwGA1UECAwFVW5zZXQxDjAMBgNVBAcMBVVuc2V0MQ4wDAYDVQQKDAVVbnNldDEY
MBYGA1UEAwwPd3d3LmV4YW1wbGUuY29tMB4XDTE0MTEyNjA0MTMzNVoXDTI0MTEy
MzA0MTMzNVowRzELMAkGA1UEBhMCVVMxDjAMBgNVBAgMBVVuc2V0MQ4wDAYDVQQK
DAVVbnNldDEYMBYGA1UEAwwPd3d3LmV4YW1wbGUuY29tMIIBIjANBgkqhkiG9w0B
AQEFAAOCAQ8AMIIBCgKCAQEAvqEtbalTCiQqNux43hNzBjhB4G0IFCjkxyNtiLKS
z+kqusrAjGt+Ae4IXbbrX/7RAZffeLzks+IU0kRXwjxmd7WKNM3q5wpdHMcYT8oH
CZIrQOd0dd3qAgGqfFkfz+QUIN+vcWsWY8eeSK6R15gyMYSckJ6xgbKVd2YVof09
JA5/xFaYUBpUt2+ekgsGywu9t6ErTM2UrcfAocUQ15S16DPZtR6MhwPxLzbcnqG9
gba2JuKoa0GRlw3yWCo0fne4/XfQdhJGgxMX2kiBv2OkCALoBr5wXjlAjXXdUyxF
6jLGrYox/INMO3goA7Z74bMfxy6Ik6Bu8/iCBNdyE0quBwIDAQABo00wSzAJBgNV
HRMEAjAAMB0GA1UdDgQWBBQo4Dc5OC4FvYbNlbD6trXXMf4PvzAfBgNVHSMEGDAW
gBS8gvmSobUQePjEZnaM8iFYae2ENjANBgkqhkiG9w0BAQsFAAOCAQEAKa2VF8Nj
wYk4MTMjwAjgQM0s6tdhPSkwiusoaZOORpUtp20C0Xk1YbJsqPfRdVR7Jyx1wf01
PvkhPmII7YgI2UHas6MgP026kiiYjYWOQzWbMe3FgfGG8aXyx0SaEKMu6+zw0o3F
oTj1hJ/7ycMVu8QbHdpPJC6yEYKzqwM1JzCXlY4bdu0RMBIbBSErv8BHYidWlgde
ELWmR9XnAbEapU/Ef7fDOcet/t1IeMnp0+KQvk4Nmcnc7NMjJjiZKzgYqdL7VtbU
Ox5b7RU/gtRSEkSeQ51IX+/5wMCEnP5ajQTmcgh8HuP78/jxcYNeDpshv7q47YKZ
ymbqnSfnkUnSgA==
-----END CERTIFICATE-----
