Certificate:
    Data:
        Version: 3 (0x2)
        Serial Number: 1 (0x1)
    Signature Algorithm: sha1WithRSAEncryption
        Issuer: C=US, ST=Unset, L=Unset, O=Unset, CN=www.example.com
        Validity
            Not Before: Oct 11 23:35:49 2014 GMT
            Not After : Oct  8 23:35:49 2024 GMT
        Subject: C=US, ST=Unset, O=Unset, CN=www.example.com
        Subject Public Key Info:
            Public Key Algorithm: rsaEncryption
                Public-Key: (2048 bit)
                Modulus:
                    00:d2:07:76:f3:82:66:63:5f:aa:2f:a9:fd:82:01:
                    ed:e9:75:1f:79:9f:60:98:ef:5a:c6:5c:51:78:30:
                    5a:60:a5:8e:29:b6:68:8e:a4:08:d9:42:71:7a:4e:
                    bf:73:b7:84:b5:36:0d:3f:63:7a:05:2f:f9:b4:2a:
                    60:78:06:2f:ae:0f:c6:8a:12:63:54:6e:24:3f:35:
                    25:61:6a:56:ed:7e:e0:2a:ad:cb:75:a7:f5:85:27:
                    28:05:4f:75:ec:90:9b:db:ee:9f:6d:8a:f8:57:8d:
                    9c:30:a0:93:c9:cd:fd:ad:53:dc:fc:45:45:f7:19:
                    f1:eb:1f:fb:a6:2c:fa:1e:c0:de:d0:bd:31:4c:29:
                    c7:68:52:3c:e1:6e:40:18:75:de:a1:59:9f:da:85:
                    07:15:f8:3a:f2:2b:34:1d:c3:62:a8:9e:57:3e:d3:
                    c1:46:0b:13:a3:b0:25:4f:e0:1d:b6:9e:7d:19:5c:
                    1d:3f:27:cc:db:fd:45:47:1d:ba:1c:e1:b2:f8:75:
                    3f:a8:3e:4e:84:00:00:1f:a0:2e:8b:95:a5:fc:68:
                    5b:cc:ea:a7:af:b2:8c:8e:7f:ce:ad:6b:a8:cb:98:
                    ac:92:88:c6:6d:43:df:36:5a:16:9b:88:4c:ac:c5:
                    f6:bb:af:55:28:46:06:32:f6:42:1c:64:af:79:87:
                    5f:d9
                Exponent: 65537 (0x10001)
        X509v3 extensions:
            X509v3 Basic Constraints: 
                CA:FALSE
            X509v3 Subject Key Identifier: 
                00:AE:22:11:B0:60:6E:F1:D3:D5:38:65:06:90:2B:FD:3B:E5:4E:50
            X509v3 Authority Key Identifier: 
                keyid:A9:B9:8F:AC:C1:E7:98:F5:06:2B:62:3B:C3:77:C8:C5:CA:6A:53:39

    Signature Algorithm: sha1WithRSAEncryption
         15:d6:a6:df:e1:87:5c:8e:d6:6a:56:3c:59:11:52:b7:f2:55:
         d6:36:22:74:8d:c9:ac:8d:b8:46:5b:2a:06:34:f7:b3:af:52:
         5e:a2:38:f3:e1:69:4f:ba:fb:21:a3:d4:b4:b5:02:5f:93:3c:
         cc:42:8a:7d:50:78:03:1a:fc:87:dc:b6:19:5c:72:19:1e:d7:
         17:1a:7a:c2:43:19:6f:d4:f4:c3:e6:80:91:98:8a:fb:96:7e:
         41:8a:c2:7a:10:71:e0:1d:da:06:de:e4:09:26:6f:af:34:c5:
         c6:60:13:d0:be:e6:29:85:e5:5c:03:f8:25:17:04:93:5d:04:
         37:1f:4f:55:82:c8:e9:e3:35:e4:49:09:fa:86:fa:f1:ec:19:
         76:6a:21:fa:d3:34:13:1c:35:65:00:84:ce:77:27:dc:a0:50:
         31:2b:03:2f:9e:8c:31:85:04:52:12:fa:91:4a:be:e7:66:37:
         c2:ca:ee:8c:51:99:3d:c1:e2:b5:33:79:2d:3a:a5:2e:1b:f7:
         ee:4e:9a:cc:d5:ec:a8:a0:07:ad:0f:14:25:47:db:e0:f7:6c:
         9f:d9:56:c6:c8:04:dc:20:76:14:a1:b0:9f:00:c3:a6:89:98:
         b1:8c:0f:b9:9a:a7:d7:e6:4a:43:08:c9:6f:b2:84:f7:ac:29:
         1f:9d:a0:e0
-----BEGIN CERTIFICATE-----
MIIDZjCCAk6gAwIBAgIBATANBgkqhkiG9w0BAQUFADBXMQswCQYDVQQGEwJVUzEO
MAwGA1UECAwFVW5zZXQxDjAMBgNVBAcMBVVuc2V0MQ4wDAYDVQQKDAVVbnNldDEY
MBYGA1UEAwwPd3d3LmV4YW1wbGUuY29tMB4XDTE0MTAxMTIzMzU0OVoXDTI0MTAw
ODIzMzU0OVowRzELMAkGA1UEBhMCVVMxDjAMBgNVBAgMBVVuc2V0MQ4wDAYDVQQK
DAVVbnNldDEYMBYGA1UEAwwPd3d3LmV4YW1wbGUuY29tMIIBIjANBgkqhkiG9w0B
AQEFAAOCAQ8AMIIBCgKCAQEA0gd284JmY1+qL6n9ggHt6XUfeZ9gmO9axlxReDBa
YKWOKbZojqQI2UJxek6/c7eEtTYNP2N6BS/5tCpgeAYvrg/GihJjVG4kPzUlYWpW
7X7gKq3Ldaf1hScoBU917JCb2+6fbYr4V42cMKCTyc39rVPc/EVF9xnx6x/7piz6
HsDe0L0xTCnHaFI84W5AGHXeoVmf2oUHFfg68is0HcNiqJ5XPtPBRgsTo7AlT+Ad
tp59GVwdPyfM2/1FRx26HOGy+HU/qD5OhAAAH6Aui5Wl/GhbzOqnr7KMjn/OrWuo
y5iskojGbUPfNloWm4hMrMX2u69VKEYGMvZCHGSveYdf2QIDAQABo00wSzAJBgNV
HRMEAjAAMB0GA1UdDgQWBBQAriIRsGBu8dPVOGUGkCv9O+VOUDAfBgNVHSMEGDAW
gBSpuY+sweeY9QYrYjvDd8jFympTOTANBgkqhkiG9w0BAQUFAAOCAQEAFdam3+GH
XI7WalY8WRFSt/JV1jYidI3JrI24RlsqBjT3s69SXqI48+FpT7r7IaPUtLUCX5M8
zEKKfVB4Axr8h9y2GVxyGR7XFxp6wkMZb9T0w+aAkZiK+5Z+QYrCehBx4B3aBt7k
CSZvrzTFxmAT0L7mKYXlXAP4JRcEk10ENx9PVYLI6eM15EkJ+ob68ewZdmoh+tM0
Exw1ZQCEzncn3KBQMSsDL56MMYUEUhL6kUq+52Y3wsrujFGZPcHitTN5LTqlLhv3
7k6azNXsqKAHrQ8UJUfb4Pdsn9lWxsgE3CB2FKGwnwDDpomYsYwPuZqn1+ZKQwjJ
b7KE96wpH52g4A==
-----END CERTIFICATE-----
