Certificate:
    Data:
        Version: 3 (0x2)
        Serial Number: 1 (0x1)
    Signature Algorithm: sha256WithRSAEncryption
        Issuer: C=US, ST=Unset, L=Unset, O=Unset, CN=www.example.com
        Validity
            Not Before: Dec 12 15:17:02 2014 GMT
            Not After : Dec  9 15:17:02 2024 GMT
        Subject: C=US, ST=Unset, O=Unset, CN=www.example.com
        Subject Public Key Info:
            Public Key Algorithm: rsaEncryption
                Public-Key: (2048 bit)
                Modulus:
                    00:b1:51:88:1b:e1:e9:15:50:f7:aa:e1:8a:be:38:
                    c4:2e:16:fd:eb:38:19:c6:30:f5:73:d1:16:ff:a6:
                    cd:eb:42:38:c8:45:8e:ef:23:1b:e6:bd:f4:22:5a:
                    35:43:01:30:55:f9:85:0f:88:ef:1e:c1:da:df:7d:
                    75:06:75:aa:52:46:6d:c6:08:8a:95:25:82:a1:69:
                    aa:e7:b6:e1:09:d9:59:e2:9a:c2:82:6c:19:a8:b2:
                    b2:51:db:63:d0:16:4a:e0:53:89:d7:ca:d4:da:4f:
                    9a:7f:33:6a:e7:a2:b5:60:f0:73:90:37:67:de:ab:
                    c6:16:56:11:c3:f6:67:23:68:b4:bf:fb:84:fa:0e:
                    32:e1:8c:12:e6:bc:2c:b7:56:54:d5:2e:85:70:1f:
                    bb:59:70:cf:ad:56:dd:d5:1e:a6:4c:48:a1:46:fa:
                    85:24:25:7c:29:55:10:f0:0e:6f:d0:a2:79:7e:a2:
                    a0:9b:8c:80:e7:7d:22:69:d2:ef:68:76:7e:0e:94:
                    66:2f:ed:42:95:5c:a6:db:8a:de:c4:e6:57:90:2b:
                    18:f3:af:57:ac:c3:2e:d4:2d:95:28:da:a8:f9:a1:
                    bb:97:34:f0:d9:b4:60:85:16:7e:6e:93:d4:b8:1e:
                    af:d1:24:68:ef:fb:07:82:0d:c5:04:b6:28:77:28:
                    c8:2d
                Exponent: 65537 (0x10001)
        X509v3 extensions:
            X509v3 Basic Constraints: 
                CA:FALSE
            X509v3 Subject Key Identifier: 
                27:F7:2C:31:F0:B9:5F:02:9E:91:26:36:A0:EE:40:42:43:9C:DD:FC
            X509v3 Authority Key Identifier: 
                keyid:86:E8:4C:E1:F7:D4:60:CE:1B:F8:76:FF:1F:1D:EB:4A:4D:D3:DA:07

    Signature Algorithm: sha256WithRSAEncryption
         73:2e:f1:cc:7e:ab:0f:64:fb:2f:90:cd:26:ab:ad:fb:0b:62:
         9c:54:c3:6a:3f:0e:78:05:3b:ea:93:16:a1:93:c6:90:17:04:
         06:53:02:a6:48:fc:ba:9c:f7:40:5d:f3:a1:7b:ce:ea:61:86:
         db:76:cb:84:0a:4c:37:a4:f8:5b:e4:5d:ba:0b:c6:d2:0f:cc:
         96:b4:d7:31:b2:f2:96:ab:20:11:85:00:11:0f:e3:e5:67:83:
         2d:4b:10:b6:56:7d:32:7b:f4:7a:66:43:ad:54:67:63:f4:ef:
         3e:27:e7:34:b6:b8:77:d1:03:5f:f1:ef:ec:2c:d0:e9:ee:b2:
         d5:97:fd:9e:ef:41:7b:09:a0:e1:cc:41:4a:34:f8:65:2c:1d:
         f4:a8:af:74:7a:fc:15:f4:76:b4:71:b5:99:9e:1b:b0:fd:8e:
         70:52:1d:a2:3a:e4:b3:99:83:8a:af:b4:31:82:fe:41:f7:90:
         6e:27:76:49:0b:4c:46:52:4c:cd:3c:07:c2:f6:af:ef:30:c8:
         fb:01:ac:25:45:ea:3f:8c:0e:3a:82:2d:7d:cd:cb:e7:68:f2:
         05:d0:36:ab:cf:a5:1a:4d:e9:30:a5:8d:37:3c:09:ee:cd:44:
         5b:74:f5:e0:80:f8:c2:c1:b4:3f:63:3d:bc:96:df:fb:3b:e4:
         d1:fe:ab:b1
-----BEGIN CERTIFICATE-----
MIIDZjCCAk6gAwIBAgIBATANBgkqhkiG9w0BAQsFADBXMQswCQYDVQQGEwJVUzEO
MAwGA1UECAwFVW5zZXQxDjAMBgNVBAcMBVVuc2V0MQ4wDAYDVQQKDAVVbnNldDEY
MBYGA1UEAwwPd3d3LmV4YW1wbGUuY29tMB4XDTE0MTIxMjE1MTcwMloXDTI0MTIw
OTE1MTcwMlowRzELMAkGA1UEBhMCVVMxDjAMBgNVBAgMBVVuc2V0MQ4wDAYDVQQK
DAVVbnNldDEYMBYGA1UEAwwPd3d3LmV4YW1wbGUuY29tMIIBIjANBgkqhkiG9w0B
AQEFAAOCAQ8AMIIBCgKCAQEAsVGIG+HpFVD3quGKvjjELhb96zgZxjD1c9EW/6bN
60I4yEWO7yMb5r30Ilo1QwEwVfmFD4jvHsHa3311BnWqUkZtxgiKlSWCoWmq57bh
CdlZ4prCgmwZqLKyUdtj0BZK4FOJ18rU2k+afzNq56K1YPBzkDdn3qvGFlYRw/Zn
I2i0v/uE+g4y4YwS5rwst1ZU1S6FcB+7WXDPrVbd1R6mTEihRvqFJCV8KVUQ8A5v
0KJ5fqKgm4yA530iadLvaHZ+DpRmL+1ClVym24rexOZXkCsY869XrMMu1C2VKNqo
+aG7lzTw2bRghRZ+bpPUuB6v0SRo7/sHgg3FBLYodyjILQIDAQABo00wSzAJBgNV
HRMEAjAAMB0GA1UdDgQWBBQn9ywx8LlfAp6RJjag7kBCQ5zd/DAfBgNVHSMEGDAW
gBSG6Ezh99Rgzhv4dv8fHetKTdPaBzANBgkqhkiG9w0BAQsFAAOCAQEAcy7xzH6r
D2T7L5DNJqut+wtinFTDaj8OeAU76pMWoZPGkBcEBlMCpkj8upz3QF3zoXvO6mGG
23bLhApMN6T4W+RdugvG0g/MlrTXMbLylqsgEYUAEQ/j5WeDLUsQtlZ9Mnv0emZD
rVRnY/TvPifnNLa4d9EDX/Hv7CzQ6e6y1Zf9nu9Bewmg4cxBSjT4ZSwd9KivdHr8
FfR2tHG1mZ4bsP2OcFIdojrks5mDiq+0MYL+QfeQbid2SQtMRlJMzTwHwvav7zDI
+wGsJUXqP4wOOoItfc3L52jyBdA2q8+lGk3pMKWNNzwJ7s1EW3T14ID4wsG0P2M9
vJbf+zvk0f6rsQ==
-----END CERTIFICATE-----
