Certificate:
    Data:
        Version: 3 (0x2)
        Serial Number: 1 (0x1)
    Signature Algorithm: sha1WithRSAEncryption
        Issuer: C=US, ST=Unset, L=Unset, O=Unset, CN=www.example.com
        Validity
            Not Before: Oct 11 21:16:32 2014 GMT
            Not After : Oct  8 21:16:32 2024 GMT
        Subject: C=US, ST=Unset, O=Unset, CN=www.example.com
        Subject Public Key Info:
            Public Key Algorithm: rsaEncryption
                Public-Key: (2048 bit)
                Modulus:
                    00:b9:0e:34:51:74:0a:a2:50:b3:21:32:da:6d:aa:
                    ac:db:f2:35:e9:f9:12:fe:c0:c2:72:40:db:11:53:
                    1a:56:36:ba:28:b7:a9:4d:11:c3:11:dc:a4:9b:94:
                    3d:9a:a5:78:b3:23:91:88:ce:fc:bd:60:19:70:6d:
                    2f:99:ac:0e:01:6a:fe:99:e3:8d:13:f7:00:a7:97:
                    5e:17:d3:64:83:e4:36:e8:7f:b2:ad:f8:5f:d6:46:
                    69:23:65:48:0e:5e:13:62:cf:3b:85:7b:02:bc:0e:
                    94:b8:5e:55:77:75:fa:5b:e4:0f:23:97:2b:2f:32:
                    e5:49:86:55:44:12:11:b3:88:a5:fe:57:97:f2:63:
                    ea:29:a6:d9:cc:b0:30:f6:65:ac:4f:78:3d:2d:43:
                    97:98:e8:bc:b4:79:a6:bb:e1:81:a5:3f:05:d5:4d:
                    70:20:80:33:17:db:b4:2e:b3:54:eb:ad:27:47:0f:
                    12:05:3c:40:bd:80:b6:3c:cb:a9:ca:c9:0d:2c:83:
                    50:a8:8d:5b:75:e5:f1:b0:57:72:90:90:c4:bb:31:
                    fb:65:40:69:fc:cc:33:eb:15:5d:40:8b:12:20:cb:
                    c2:78:b7:de:a7:2b:37:14:16:c8:f3:c1:51:9a:05:
                    6d:86:08:6f:9d:16:99:97:c7:9a:3f:d8:c8:17:1d:
                    c1:2d
                Exponent: 65537 (0x10001)
        X509v3 extensions:
            X509v3 Basic Constraints: 
                CA:FALSE
            X509v3 Subject Key Identifier: 
                B4:B4:66:D0:F0:17:96:9A:F8:02:82:30:5C:FD:A9:38:FE:38:A8:5C
            X509v3 Authority Key Identifier: 
                keyid:72:AC:A5:C8:B7:E9:32:73:B1:8F:FE:51:0A:4B:84:95:39:18:6B:B8

    Signature Algorithm: sha1WithRSAEncryption
         90:c5:2b:91:c7:92:dc:cb:be:58:9c:25:06:f1:c4:10:63:ee:
         4f:2e:ac:3d:07:e4:ae:69:f8:9a:97:66:c6:79:74:f1:4b:0d:
         a2:4b:83:2f:c3:02:4b:01:81:c1:60:0f:b0:7b:6e:05:e3:3d:
         56:56:94:58:cb:c5:75:c4:9e:e2:5a:59:1b:c4:86:95:2d:d2:
         5c:c7:5c:7f:8b:af:bd:f6:9c:8d:3a:37:cf:98:bd:56:18:7f:
         98:93:59:b8:99:2a:30:70:dd:34:17:70:2f:5a:15:13:af:20:
         70:60:d1:d7:d0:18:e3:ef:bd:0c:62:90:56:e3:1c:c6:95:5c:
         ba:24:96:91:e1:a6:65:5d:9a:88:b8:e3:0a:3b:2e:36:9e:6b:
         a0:18:f4:5c:bf:dc:85:d6:1c:58:a2:2f:6d:79:e9:49:8f:8b:
         ac:ba:cd:44:26:da:04:8d:9d:b0:af:25:09:6b:60:89:8c:af:
         bf:18:21:6d:b6:2c:28:a4:ee:94:96:ce:94:d4:c8:e7:96:b6:
         a0:10:5b:63:a6:cd:ff:49:b7:13:47:f5:48:cb:ba:f5:d8:4a:
         c6:7f:d3:4c:b5:65:dd:52:14:8a:77:54:71:76:be:dc:23:ac:
         de:87:fd:17:d1:cb:3e:d9:a2:a0:b0:80:f0:4b:97:ea:48:e7:
         d1:c9:fa:3b
-----BEGIN CERTIFICATE-----
MIIDZjCCAk6gAwIBAgIBATANBgkqhkiG9w0BAQUFADBXMQswCQYDVQQGEwJVUzEO
MAwGA1UECAwFVW5zZXQxDjAMBgNVBAcMBVVuc2V0MQ4wDAYDVQQKDAVVbnNldDEY
MBYGA1UEAwwPd3d3LmV4YW1wbGUuY29tMB4XDTE0MTAxMTIxMTYzMloXDTI0MTAw
ODIxMTYzMlowRzELMAkGA1UEBhMCVVMxDjAMBgNVBAgMBVVuc2V0MQ4wDAYDVQQK
DAVVbnNldDEYMBYGA1UEAwwPd3d3LmV4YW1wbGUuY29tMIIBIjANBgkqhkiG9w0B
AQEFAAOCAQ8AMIIBCgKCAQEAuQ40UXQKolCzITLabaqs2/I16fkS/sDCckDbEVMa
Vja6KLepTRHDEdykm5Q9mqV4syORiM78vWAZcG0vmawOAWr+meONE/cAp5deF9Nk
g+Q26H+yrfhf1kZpI2VIDl4TYs87hXsCvA6UuF5Vd3X6W+QPI5crLzLlSYZVRBIR
s4il/leX8mPqKabZzLAw9mWsT3g9LUOXmOi8tHmmu+GBpT8F1U1wIIAzF9u0LrNU
660nRw8SBTxAvYC2PMupyskNLINQqI1bdeXxsFdykJDEuzH7ZUBp/Mwz6xVdQIsS
IMvCeLfepys3FBbI88FRmgVthghvnRaZl8eaP9jIFx3BLQIDAQABo00wSzAJBgNV
HRMEAjAAMB0GA1UdDgQWBBS0tGbQ8BeWmvgCgjBc/ak4/jioXDAfBgNVHSMEGDAW
gBRyrKXIt+kyc7GP/lEKS4SVORhruDANBgkqhkiG9w0BAQUFAAOCAQEAkMUrkceS
3Mu+WJwlBvHEEGPuTy6sPQfkrmn4mpdmxnl08UsNokuDL8MCSwGBwWAPsHtuBeM9
VlaUWMvFdcSe4lpZG8SGlS3SXMdcf4uvvfacjTo3z5i9Vhh/mJNZuJkqMHDdNBdw
L1oVE68gcGDR19AY4++9DGKQVuMcxpVcuiSWkeGmZV2aiLjjCjsuNp5roBj0XL/c
hdYcWKIvbXnpSY+LrLrNRCbaBI2dsK8lCWtgiYyvvxghbbYsKKTulJbOlNTI55a2
oBBbY6bN/0m3E0f1SMu69dhKxn/TTLVl3VIUindUcXa+3COs3of9F9HLPtmioLCA
8EuX6kjn0cn6Ow==
-----END CERTIFICATE-----
