Certificate:
    Data:
        Version: 3 (0x2)
        Serial Number: 1 (0x1)
    Signature Algorithm: sha256WithRSAEncryption
        Issuer: C=US, ST=Unset, L=Unset, O=Unset, CN=www.example.com
        Validity
            Not Before: Dec 12 12:19:40 2014 GMT
            Not After : Dec  9 12:19:40 2024 GMT
        Subject: C=US, ST=Unset, O=Unset, CN=www.example.com
        Subject Public Key Info:
            Public Key Algorithm: rsaEncryption
                Public-Key: (2048 bit)
                Modulus:
                    00:c5:e8:c2:ab:a1:bf:81:ad:b4:70:48:2e:cf:2f:
                    4d:0b:88:23:e9:f6:62:fe:54:c8:ed:58:a7:f8:9e:
                    bb:96:d3:be:bb:1c:9d:56:e1:8c:96:d5:d1:9a:cb:
                    04:aa:dc:cd:f1:e7:d7:b7:da:84:3e:2a:00:f0:9a:
                    6e:4c:76:51:c6:41:53:a3:cd:a5:d1:1a:d3:79:42:
                    32:29:06:7c:b9:89:ff:b9:0b:17:73:d2:62:fa:2f:
                    eb:c4:d8:5d:4f:91:1d:f3:1f:f0:86:5c:c9:25:10:
                    27:8f:7c:2f:34:52:3a:35:49:fe:20:43:32:9b:45:
                    19:a5:15:a8:ed:6b:0c:5c:b7:fb:d5:df:a5:16:a7:
                    32:bf:dc:13:dc:17:c4:58:2a:34:19:7c:54:84:99:
                    b6:02:e4:8b:23:96:2e:61:0f:bc:96:43:b4:3b:71:
                    5b:9a:9c:96:1c:41:31:b5:2a:c4:95:ad:51:c7:b1:
                    57:07:c9:4d:cb:5c:dc:cb:56:78:5c:4a:3f:be:77:
                    c5:41:44:ae:3e:5c:7b:6f:75:5f:a3:54:62:86:77:
                    aa:9d:d1:94:3a:dc:22:bf:31:80:10:b2:c1:43:87:
                    01:99:2a:fd:7d:ba:94:7e:2a:81:22:74:0d:5a:66:
                    72:44:17:cc:3c:99:6e:67:ec:e6:35:49:62:0d:a8:
                    56:55
                Exponent: 65537 (0x10001)
        X509v3 extensions:
            X509v3 Basic Constraints: 
                CA:FALSE
            X509v3 Subject Key Identifier: 
                2F:9A:19:64:51:C8:38:6C:F2:B2:3A:89:F1:A2:87:E6:40:DA:15:D1
            X509v3 Authority Key Identifier: 
                keyid:38:38:EE:23:33:A2:FE:94:9B:71:46:1A:55:94:9B:A2:12:DD:B5:B5

    Signature Algorithm: sha256WithRSAEncryption
         5d:31:71:f7:02:c4:57:a7:ae:34:22:ee:6d:48:c1:c7:43:30:
         17:85:c2:92:36:bd:bc:87:46:61:f8:cd:17:06:f5:da:30:88:
         0e:79:2d:94:aa:1e:c3:a5:32:3e:75:f6:92:e9:d6:0f:f6:ff:
         45:b6:70:fa:8d:4f:c9:8e:0b:9b:ff:85:c7:bb:ac:b4:51:e4:
         07:0d:8b:85:b1:19:b9:f8:e9:1b:02:93:f2:ea:0e:15:15:29:
         b3:d8:95:b2:b7:7e:83:9f:0e:e3:d7:92:c4:7e:87:e9:92:80:
         00:cd:50:29:84:58:1e:14:5f:90:95:53:80:2d:ba:00:d8:a7:
         59:ec:6e:45:a8:2e:5b:1c:80:55:4f:66:e3:22:ac:1d:d0:e6:
         bd:cc:e7:43:3b:a0:97:8a:57:0c:75:0d:40:2c:07:ec:b4:33:
         de:81:b6:a9:7e:f8:0f:ad:65:6f:a3:cd:7d:07:5d:ba:97:e8:
         d4:0d:c8:82:da:26:e0:f2:0c:55:c8:db:c0:ec:2b:29:1a:92:
         d9:87:d6:ce:c0:a5:eb:04:b2:5f:83:37:99:f6:79:58:75:67:
         86:05:d5:22:14:fb:0f:c0:d8:6a:7a:af:25:03:9e:e2:80:9c:
         db:36:5a:c9:e6:14:ff:ea:88:c5:67:d0:bf:b6:11:7e:b9:55:
         f8:dd:97:06
-----BEGIN CERTIFICATE-----
MIIDZjCCAk6gAwIBAgIBATANBgkqhkiG9w0BAQsFADBXMQswCQYDVQQGEwJVUzEO
MAwGA1UECAwFVW5zZXQxDjAMBgNVBAcMBVVuc2V0MQ4wDAYDVQQKDAVVbnNldDEY
MBYGA1UEAwwPd3d3LmV4YW1wbGUuY29tMB4XDTE0MTIxMjEyMTk0MFoXDTI0MTIw
OTEyMTk0MFowRzELMAkGA1UEBhMCVVMxDjAMBgNVBAgMBVVuc2V0MQ4wDAYDVQQK
DAVVbnNldDEYMBYGA1UEAwwPd3d3LmV4YW1wbGUuY29tMIIBIjANBgkqhkiG9w0B
AQEFAAOCAQ8AMIIBCgKCAQEAxejCq6G/ga20cEguzy9NC4gj6fZi/lTI7Vin+J67
ltO+uxydVuGMltXRmssEqtzN8efXt9qEPioA8JpuTHZRxkFTo82l0RrTeUIyKQZ8
uYn/uQsXc9Ji+i/rxNhdT5Ed8x/whlzJJRAnj3wvNFI6NUn+IEMym0UZpRWo7WsM
XLf71d+lFqcyv9wT3BfEWCo0GXxUhJm2AuSLI5YuYQ+8lkO0O3FbmpyWHEExtSrE
la1Rx7FXB8lNy1zcy1Z4XEo/vnfFQUSuPlx7b3Vfo1RihneqndGUOtwivzGAELLB
Q4cBmSr9fbqUfiqBInQNWmZyRBfMPJluZ+zmNUliDahWVQIDAQABo00wSzAJBgNV
HRMEAjAAMB0GA1UdDgQWBBQvmhlkUcg4bPKyOonxoofmQNoV0TAfBgNVHSMEGDAW
gBQ4OO4jM6L+lJtxRhpVlJuiEt21tTANBgkqhkiG9w0BAQsFAAOCAQEAXTFx9wLE
V6euNCLubUjBx0MwF4XCkja9vIdGYfjNFwb12jCIDnktlKoew6UyPnX2kunWD/b/
RbZw+o1PyY4Lm/+Fx7ustFHkBw2LhbEZufjpGwKT8uoOFRUps9iVsrd+g58O49eS
xH6H6ZKAAM1QKYRYHhRfkJVTgC26ANinWexuRaguWxyAVU9m4yKsHdDmvcznQzug
l4pXDHUNQCwH7LQz3oG2qX74D61lb6PNfQddupfo1A3Igtom4PIMVcjbwOwrKRqS
2YfWzsCl6wSyX4M3mfZ5WHVnhgXVIhT7D8DYanqvJQOe4oCc2zZayeYU/+qIxWfQ
v7YRfrlV+N2XBg==
-----END CERTIFICATE-----
