Certificate:
    Data:
        Version: 3 (0x2)
        Serial Number: 1 (0x1)
    Signature Algorithm: sha1WithRSAEncryption
        Issuer: C=US, ST=Unset, L=Unset, O=Unset, CN=www.example.com
        Validity
            Not Before: Oct 11 19:20:27 2014 GMT
            Not After : Oct  8 19:20:27 2024 GMT
        Subject: C=US, ST=Unset, O=Unset, CN=www.example.com
        Subject Public Key Info:
            Public Key Algorithm: rsaEncryption
                Public-Key: (2048 bit)
                Modulus:
                    00:b9:8a:44:90:a9:61:bb:ea:be:3f:34:f9:b3:f9:
                    7e:16:23:c9:35:a6:7a:8f:4b:60:d4:23:aa:b3:a4:
                    75:55:66:53:e2:c7:12:6d:3f:76:e2:2c:ed:50:f2:
                    f5:b1:94:3b:78:3d:0d:dc:4e:72:ee:9c:72:c0:a2:
                    98:1b:12:45:b7:63:8c:49:b7:1b:bd:49:f9:7a:5e:
                    55:39:98:40:44:6f:79:09:25:d0:be:e0:97:ee:54:
                    bd:1a:a9:c1:7c:9a:c6:51:f5:2d:e6:55:ca:fd:e1:
                    4d:2f:16:4b:7d:f0:99:75:ad:30:f8:d1:6e:01:7c:
                    5b:89:05:28:2b:46:85:42:d6:7d:45:90:2d:74:cb:
                    11:d3:69:e7:ae:a0:82:84:ae:cd:29:2c:54:a3:6d:
                    9c:bb:3d:0e:5f:6f:35:49:f2:96:bf:d7:18:e7:f3:
                    09:4a:1a:67:b8:af:e9:1b:e9:06:e6:0b:89:4e:a1:
                    7b:ef:39:70:1d:d1:61:ab:86:8a:5a:4c:b6:39:dc:
                    d1:e0:8f:d7:d9:68:50:81:ef:1c:25:7e:95:0a:16:
                    9d:11:51:51:df:87:c6:cd:c8:09:d0:7d:44:c0:6f:
                    90:74:59:4b:62:8a:46:8e:19:8e:0e:b9:0f:45:b3:
                    9c:32:3e:ec:fa:67:d1:c7:ca:0e:f9:7e:e1:a3:97:
                    74:75
                Exponent: 65537 (0x10001)
        X509v3 extensions:
            X509v3 Basic Constraints: 
                CA:FALSE
            X509v3 Subject Key Identifier: 
                03:2E:DA:F4:BF:7D:B6:FA:14:D0:77:56:46:8D:88:48:FE:6B:95:53
            X509v3 Authority Key Identifier: 
                keyid:B1:8E:D1:9E:49:11:03:E9:C0:A8:F7:09:6E:4D:2F:A0:4B:F2:69:A3

    Signature Algorithm: sha1WithRSAEncryption
         a4:dc:f5:9c:79:ad:23:0a:94:1d:c3:34:8e:48:5d:16:3c:f1:
         f2:22:bd:ec:d4:1c:b5:bc:4f:61:56:a8:b7:ea:9b:5b:58:48:
         19:c1:e7:bd:c1:06:a9:eb:b7:2d:05:10:ac:94:1d:55:61:4b:
         8e:5e:4e:49:95:fc:e0:8a:84:ac:6a:c1:9e:07:48:85:50:ae:
         4b:2b:8b:23:39:56:e4:67:21:ea:cb:8a:9c:3c:a3:83:c1:9e:
         77:ff:4b:ed:9c:82:67:48:d7:da:19:47:ac:a3:07:41:f1:81:
         0e:e1:c7:8e:c9:48:5e:51:7a:43:25:db:1a:dd:48:14:5b:bc:
         15:5c:13:09:5e:aa:30:7a:9f:fc:a8:9b:8b:70:70:8e:e4:09:
         06:3a:cb:a1:a9:76:85:2d:79:99:46:1b:eb:0c:b5:2a:20:13:
         87:ce:22:f4:1d:a0:a5:9e:14:23:ab:6d:e2:a2:14:ca:36:d3:
         6b:77:ca:f6:c9:6c:95:e4:67:2e:fe:78:a4:37:2b:4b:88:c9:
         e5:76:9d:be:fc:75:38:e6:c9:de:04:36:00:0d:0d:0f:93:5c:
         c5:a1:f0:8e:e2:dc:25:ff:b3:ca:ca:85:7d:27:1b:06:9d:f0:
         3b:0c:a0:ad:e0:89:1c:54:e0:28:aa:5f:68:7c:3f:59:2b:72:
         24:71:bb:80
-----BEGIN CERTIFICATE-----
MIIDZjCCAk6gAwIBAgIBATANBgkqhkiG9w0BAQUFADBXMQswCQYDVQQGEwJVUzEO
MAwGA1UECAwFVW5zZXQxDjAMBgNVBAcMBVVuc2V0MQ4wDAYDVQQKDAVVbnNldDEY
MBYGA1UEAwwPd3d3LmV4YW1wbGUuY29tMB4XDTE0MTAxMTE5MjAyN1oXDTI0MTAw
ODE5MjAyN1owRzELMAkGA1UEBhMCVVMxDjAMBgNVBAgMBVVuc2V0MQ4wDAYDVQQK
DAVVbnNldDEYMBYGA1UEAwwPd3d3LmV4YW1wbGUuY29tMIIBIjANBgkqhkiG9w0B
AQEFAAOCAQ8AMIIBCgKCAQEAuYpEkKlhu+q+PzT5s/l+FiPJNaZ6j0tg1COqs6R1
VWZT4scSbT924iztUPL1sZQ7eD0N3E5y7pxywKKYGxJFt2OMSbcbvUn5el5VOZhA
RG95CSXQvuCX7lS9GqnBfJrGUfUt5lXK/eFNLxZLffCZda0w+NFuAXxbiQUoK0aF
QtZ9RZAtdMsR02nnrqCChK7NKSxUo22cuz0OX281SfKWv9cY5/MJShpnuK/pG+kG
5guJTqF77zlwHdFhq4aKWky2OdzR4I/X2WhQge8cJX6VChadEVFR34fGzcgJ0H1E
wG+QdFlLYopGjhmODrkPRbOcMj7s+mfRx8oO+X7ho5d0dQIDAQABo00wSzAJBgNV
HRMEAjAAMB0GA1UdDgQWBBQDLtr0v322+hTQd1ZGjYhI/muVUzAfBgNVHSMEGDAW
gBSxjtGeSRED6cCo9wluTS+gS/JpozANBgkqhkiG9w0BAQUFAAOCAQEApNz1nHmt
IwqUHcM0jkhdFjzx8iK97NQctbxPYVaot+qbW1hIGcHnvcEGqeu3LQUQrJQdVWFL
jl5OSZX84IqErGrBngdIhVCuSyuLIzlW5Gch6suKnDyjg8Ged/9L7ZyCZ0jX2hlH
rKMHQfGBDuHHjslIXlF6QyXbGt1IFFu8FVwTCV6qMHqf/Kibi3BwjuQJBjrLoal2
hS15mUYb6wy1KiATh84i9B2gpZ4UI6tt4qIUyjbTa3fK9slsleRnLv54pDcrS4jJ
5Xadvvx1OObJ3gQ2AA0ND5NcxaHwjuLcJf+zysqFfScbBp3wOwygreCJHFTgKKpf
aHw/WStyJHG7gA==
-----END CERTIFICATE-----
