Certificate:
    Data:
        Version: 3 (0x2)
        Serial Number: 1 (0x1)
    Signature Algorithm: sha256WithRSAEncryption
        Issuer: C=US, ST=Unset, L=Unset, O=Unset, CN=www.example.com
        Validity
            Not Before: Dec 12 12:54:01 2014 GMT
            Not After : Dec  9 12:54:01 2024 GMT
        Subject: C=US, ST=Unset, O=Unset, CN=www.example.com
        Subject Public Key Info:
            Public Key Algorithm: rsaEncryption
                Public-Key: (2048 bit)
                Modulus:
                    00:a2:e9:45:77:b4:b9:53:a6:54:ac:cd:dc:09:49:
                    84:03:78:ab:06:39:36:9e:c8:07:2b:80:06:80:36:
                    d5:55:d4:ff:84:f2:2d:37:bd:54:04:a7:d1:a0:8d:
                    4e:3e:fd:bb:bc:45:63:0d:14:32:45:93:34:fe:75:
                    3d:c6:93:c9:05:5a:bd:77:f7:16:17:6b:9c:cb:fa:
                    e0:8c:da:a5:6d:8e:50:fb:d9:7d:a4:c8:d0:01:de:
                    51:be:8b:12:b4:50:c0:b7:81:13:8f:54:fb:8d:16:
                    71:7e:d5:19:4c:4e:40:f2:1d:e1:44:cb:05:22:b4:
                    c5:ba:20:ec:f8:3d:dd:0b:9c:27:90:e2:e4:23:e3:
                    0f:65:1d:2d:cf:56:03:97:c4:d6:bb:06:0f:6b:20:
                    08:4b:1c:13:a2:3f:3a:3a:0a:d0:ea:a4:fc:71:3b:
                    29:e9:52:a5:89:c9:bc:5b:b2:fd:79:97:c9:92:91:
                    96:e8:d7:c2:b1:ef:55:73:4e:dc:40:48:6b:30:f1:
                    19:90:80:09:d5:e9:80:75:29:c6:ab:a2:20:45:f8:
                    be:f4:f4:7c:dc:b9:a1:63:7e:12:78:ec:3a:57:31:
                    ab:1c:1b:40:a1:94:64:ac:1a:5d:93:9a:81:f0:2e:
                    ba:66:dd:1d:e1:5f:29:12:f0:59:e7:9d:76:1d:53:
                    ee:d5
                Exponent: 65537 (0x10001)
        X509v3 extensions:
            X509v3 Basic Constraints: 
                CA:FALSE
            X509v3 Subject Key Identifier: 
                3F:5E:31:1A:2F:93:DB:99:0F:39:80:6D:B4:6F:84:57:F7:C4:54:89
            X509v3 Authority Key Identifier: 
                keyid:E8:00:3A:92:B1:CD:AF:D0:B8:39:5F:02:5D:D5:65:26:BD:17:F2:46

    Signature Algorithm: sha256WithRSAEncryption
         97:3b:2c:a0:0c:d7:20:85:c7:d2:1e:8f:3d:60:4b:44:59:ab:
         01:c6:52:3b:a5:db:0f:23:73:8c:72:24:5c:61:d6:e9:24:8c:
         eb:bb:bd:eb:94:20:b6:c1:76:be:48:8c:d4:fa:12:43:fb:fa:
         26:9f:44:30:8b:3d:41:0c:bd:79:53:2e:79:1a:d5:ba:5c:c9:
         74:13:33:e5:fd:74:0c:9a:02:34:ab:a3:54:35:88:b1:d1:4b:
         4f:84:a2:fe:76:fe:9f:47:16:fe:d2:f0:3d:f8:f7:d2:37:7e:
         2a:8d:f3:9b:21:fc:79:df:63:c9:06:4e:42:fb:18:20:6f:11:
         90:39:91:56:90:c0:01:e8:6c:67:af:d6:0a:09:fc:97:d0:a6:
         0a:31:15:9e:58:a5:f0:c9:c5:84:c6:ef:61:4b:fd:7c:56:cc:
         0a:d3:3c:12:12:c1:bf:cd:23:b8:f7:58:4d:6f:a5:bc:8c:1b:
         22:12:3b:3a:a6:b0:d5:d8:2a:e1:ee:a4:46:89:c7:4a:94:47:
         7d:c9:a4:7f:9a:2a:a2:f1:cc:fc:66:83:ab:12:22:ac:52:64:
         d1:e7:a3:f7:56:37:fe:ef:e5:33:6c:1c:1c:af:2e:fd:68:cf:
         2e:bd:08:5a:a0:81:43:5b:22:17:28:3b:90:1b:cc:32:9f:1f:
         74:c5:0c:44
-----BEGIN CERTIFICATE-----
MIIDZjCCAk6gAwIBAgIBATANBgkqhkiG9w0BAQsFADBXMQswCQYDVQQGEwJVUzEO
MAwGA1UECAwFVW5zZXQxDjAMBgNVBAcMBVVuc2V0MQ4wDAYDVQQKDAVVbnNldDEY
MBYGA1UEAwwPd3d3LmV4YW1wbGUuY29tMB4XDTE0MTIxMjEyNTQwMVoXDTI0MTIw
OTEyNTQwMVowRzELMAkGA1UEBhMCVVMxDjAMBgNVBAgMBVVuc2V0MQ4wDAYDVQQK
DAVVbnNldDEYMBYGA1UEAwwPd3d3LmV4YW1wbGUuY29tMIIBIjANBgkqhkiG9w0B
AQEFAAOCAQ8AMIIBCgKCAQEAoulFd7S5U6ZUrM3cCUmEA3irBjk2nsgHK4AGgDbV
VdT/hPItN71UBKfRoI1OPv27vEVjDRQyRZM0/nU9xpPJBVq9d/cWF2ucy/rgjNql
bY5Q+9l9pMjQAd5RvosStFDAt4ETj1T7jRZxftUZTE5A8h3hRMsFIrTFuiDs+D3d
C5wnkOLkI+MPZR0tz1YDl8TWuwYPayAISxwToj86OgrQ6qT8cTsp6VKlicm8W7L9
eZfJkpGW6NfCse9Vc07cQEhrMPEZkIAJ1emAdSnGq6IgRfi+9PR83LmhY34SeOw6
VzGrHBtAoZRkrBpdk5qB8C66Zt0d4V8pEvBZ5512HVPu1QIDAQABo00wSzAJBgNV
HRMEAjAAMB0GA1UdDgQWBBQ/XjEaL5PbmQ85gG20b4RX98RUiTAfBgNVHSMEGDAW
gBToADqSsc2v0Lg5XwJd1WUmvRfyRjANBgkqhkiG9w0BAQsFAAOCAQEAlzssoAzX
IIXH0h6PPWBLRFmrAcZSO6XbDyNzjHIkXGHW6SSM67u965QgtsF2vkiM1PoSQ/v6
Jp9EMIs9QQy9eVMueRrVulzJdBMz5f10DJoCNKujVDWIsdFLT4Si/nb+n0cW/tLw
Pfj30jd+Ko3zmyH8ed9jyQZOQvsYIG8RkDmRVpDAAehsZ6/WCgn8l9CmCjEVnlil
8MnFhMbvYUv9fFbMCtM8EhLBv80juPdYTW+lvIwbIhI7Oqaw1dgq4e6kRonHSpRH
fcmkf5oqovHM/GaDqxIirFJk0eej91Y3/u/lM2wcHK8u/WjPLr0IWqCBQ1siFyg7
kBvMMp8fdMUMRA==
-----END CERTIFICATE-----
