Certificate:
    Data:
        Version: 3 (0x2)
        Serial Number: 1 (0x1)
    Signature Algorithm: sha256WithRSAEncryption
        Issuer: C=US, ST=Unset, L=Unset, O=Unset, CN=www.example.com
        Validity
            Not Before: Dec 12 16:14:26 2014 GMT
            Not After : Dec  9 16:14:26 2024 GMT
        Subject: C=US, ST=Unset, O=Unset, CN=www.example.com
        Subject Public Key Info:
            Public Key Algorithm: rsaEncryption
                Public-Key: (2048 bit)
                Modulus:
                    00:cf:4f:34:04:25:fb:43:41:96:ae:84:49:ff:37:
                    4f:90:6d:ee:1a:54:f2:a7:bd:d3:76:5f:30:8f:78:
                    9f:df:6e:6c:79:2c:f2:5f:38:1f:17:db:42:02:35:
                    d6:9b:c3:fc:65:f6:04:35:dc:3a:82:c0:84:a6:5f:
                    63:6f:34:5c:4c:8b:45:92:a2:01:ef:4c:db:5e:4e:
                    1b:6a:a5:80:0a:ad:ce:4a:9c:09:eb:91:d4:2d:33:
                    81:9f:99:54:e4:71:a8:50:de:cc:f3:1b:2d:5f:cb:
                    25:2f:5a:91:f1:c7:00:f5:cc:39:61:9c:5a:f0:2b:
                    b1:78:ad:55:ac:15:13:3a:b2:a4:ec:60:49:ab:be:
                    28:95:46:d2:d5:08:ce:4f:f3:b9:5d:5d:eb:27:01:
                    58:d7:ce:06:a3:4c:b3:83:6d:13:21:fb:8a:51:8f:
                    1f:ca:c4:43:f3:45:ba:d2:5b:70:f1:44:cc:a4:ab:
                    68:df:b8:8c:da:ce:bb:2c:8e:d5:b9:ce:ae:07:d3:
                    46:43:04:47:a4:95:2f:cc:9e:69:da:cf:7a:b1:56:
                    00:2a:f7:60:c0:ec:b8:ed:93:bf:fa:aa:66:97:9c:
                    a9:08:77:a0:7c:a4:c2:59:00:5c:e9:cf:2f:9f:c2:
                    a9:30:9b:ec:40:87:80:7b:e0:68:79:5c:2a:de:86:
                    3e:e5
                Exponent: 65537 (0x10001)
        X509v3 extensions:
            X509v3 Basic Constraints: 
                CA:FALSE
            X509v3 Subject Key Identifier: 
                91:E4:DD:D7:80:E5:EA:72:D1:86:18:88:18:64:2D:88:06:54:7F:EC
            X509v3 Authority Key Identifier: 
                keyid:E3:9C:50:D5:DF:8C:59:11:CC:26:91:67:02:27:5C:53:E7:8C:05:8A

    Signature Algorithm: sha256WithRSAEncryption
         28:fd:e9:5b:6a:37:c3:22:f6:65:1b:62:ed:32:a2:64:27:e5:
         c3:2d:25:d3:f0:06:44:d9:36:88:7f:0c:b4:9c:e1:d8:fc:68:
         31:ce:bd:6a:d4:e4:6f:91:ee:f1:5f:9e:4f:35:4e:04:11:54:
         e7:53:c5:7e:c1:b8:b9:7d:c1:d4:ca:56:8e:47:1b:c5:1d:22:
         f6:2e:4d:4f:9b:d6:8a:6b:da:ec:ed:a0:13:cd:e7:e1:9c:b4:
         9e:62:62:ee:0a:4c:49:15:71:ca:2a:f5:64:0e:20:07:15:a8:
         84:0d:5a:4b:db:51:d0:9c:cf:d2:c0:e6:3c:55:fe:c9:bf:c4:
         23:58:63:ab:59:41:7c:d1:22:2c:ce:35:d9:61:f5:06:40:e7:
         42:4a:12:e5:67:d9:49:10:60:d1:1a:eb:47:2c:64:df:3f:07:
         ce:27:80:38:87:02:22:39:79:6f:7f:6d:b3:99:06:e4:22:05:
         13:5f:77:01:25:20:4a:23:76:68:e9:1b:cd:0a:c8:ce:be:2d:
         63:52:a3:df:f9:43:21:ec:d8:87:4e:ab:20:6a:58:d4:aa:c9:
         ee:5d:11:6a:eb:0e:a8:25:3c:95:f4:3d:95:48:e0:ac:14:77:
         d4:7c:ea:3e:37:fb:09:2a:fc:63:2d:1a:13:e2:e7:30:e0:d9:
         5e:fa:d4:cc
-----BEGIN CERTIFICATE-----
MIIDZjCCAk6gAwIBAgIBATANBgkqhkiG9w0BAQsFADBXMQswCQYDVQQGEwJVUzEO
MAwGA1UECAwFVW5zZXQxDjAMBgNVBAcMBVVuc2V0MQ4wDAYDVQQKDAVVbnNldDEY
MBYGA1UEAwwPd3d3LmV4YW1wbGUuY29tMB4XDTE0MTIxMjE2MTQyNloXDTI0MTIw
OTE2MTQyNlowRzELMAkGA1UEBhMCVVMxDjAMBgNVBAgMBVVuc2V0MQ4wDAYDVQQK
DAVVbnNldDEYMBYGA1UEAwwPd3d3LmV4YW1wbGUuY29tMIIBIjANBgkqhkiG9w0B
AQEFAAOCAQ8AMIIBCgKCAQEAz080BCX7Q0GWroRJ/zdPkG3uGlTyp73Tdl8wj3if
325seSzyXzgfF9tCAjXWm8P8ZfYENdw6gsCEpl9jbzRcTItFkqIB70zbXk4baqWA
Cq3OSpwJ65HULTOBn5lU5HGoUN7M8xstX8slL1qR8ccA9cw5YZxa8CuxeK1VrBUT
OrKk7GBJq74olUbS1QjOT/O5XV3rJwFY184Go0yzg20TIfuKUY8fysRD80W60ltw
8UTMpKto37iM2s67LI7Vuc6uB9NGQwRHpJUvzJ5p2s96sVYAKvdgwOy47ZO/+qpm
l5ypCHegfKTCWQBc6c8vn8KpMJvsQIeAe+BoeVwq3oY+5QIDAQABo00wSzAJBgNV
HRMEAjAAMB0GA1UdDgQWBBSR5N3XgOXqctGGGIgYZC2IBlR/7DAfBgNVHSMEGDAW
gBTjnFDV34xZEcwmkWcCJ1xT54wFijANBgkqhkiG9w0BAQsFAAOCAQEAKP3pW2o3
wyL2ZRti7TKiZCflwy0l0/AGRNk2iH8MtJzh2PxoMc69atTkb5Hu8V+eTzVOBBFU
51PFfsG4uX3B1MpWjkcbxR0i9i5NT5vWimva7O2gE83n4Zy0nmJi7gpMSRVxyir1
ZA4gBxWohA1aS9tR0JzP0sDmPFX+yb/EI1hjq1lBfNEiLM412WH1BkDnQkoS5WfZ
SRBg0RrrRyxk3z8HzieAOIcCIjl5b39ts5kG5CIFE193ASUgSiN2aOkbzQrIzr4t
Y1Kj3/lDIezYh06rIGpY1KrJ7l0RausOqCU8lfQ9lUjgrBR31HzqPjf7CSr8Yy0a
E+LnMODZXvrUzA==
-----END CERTIFICATE-----
