Certificate:
    Data:
        Version: 3 (0x2)
        Serial Number: 1 (0x1)
    Signature Algorithm: sha256WithRSAEncryption
        Issuer: C=US, ST=Unset, L=Unset, O=Unset, CN=www.example.com
        Validity
            Not Before: Nov 26 01:55:56 2014 GMT
            Not After : Nov 23 01:55:56 2024 GMT
        Subject: C=US, ST=Unset, O=Unset, CN=www.example.com
        Subject Public Key Info:
            Public Key Algorithm: rsaEncryption
                Public-Key: (2048 bit)
                Modulus:
                    00:a4:d9:2f:04:49:d4:a8:ca:5e:b8:cd:08:82:20:
                    3b:18:9c:54:27:5b:5d:fd:d5:69:79:9b:84:aa:20:
                    b6:25:08:2a:b2:e0:04:c0:31:70:21:af:56:67:c6:
                    80:32:34:d2:a2:1e:93:5c:c3:24:cb:95:0c:55:9d:
                    27:5a:16:bb:1d:93:78:e2:dc:b1:98:2f:72:60:6f:
                    7d:35:6b:95:b0:47:70:ef:19:12:3c:c7:47:3c:06:
                    48:7d:96:8c:53:31:08:1e:03:f2:92:7a:a2:50:3e:
                    b0:ab:3e:30:73:d9:24:5b:8c:c9:0f:f3:15:a7:ec:
                    df:ee:56:7c:86:2d:16:43:f3:96:bc:c7:05:f6:62:
                    05:7f:74:da:30:a4:5e:ed:21:26:01:bc:34:e2:e4:
                    0a:11:66:50:77:37:59:62:0d:0e:99:b2:09:8a:d3:
                    4e:03:96:0b:f1:e9:82:ba:05:54:b1:c2:d3:30:df:
                    26:a2:01:ed:43:19:9a:79:6c:62:3f:8d:f8:90:9c:
                    c9:2e:e6:79:d5:2a:e4:3f:91:7f:d5:71:b8:94:51:
                    80:c7:42:97:f4:26:f0:f4:a5:7a:92:79:a8:51:85:
                    5b:65:9a:7f:e2:1a:ff:ba:8d:f8:02:16:85:d7:a2:
                    9e:99:2e:57:26:8d:83:dd:2f:b5:72:7a:10:fc:34:
                    a3:1d
                Exponent: 65537 (0x10001)
        X509v3 extensions:
            X509v3 Basic Constraints: 
                CA:FALSE
            X509v3 Subject Key Identifier: 
                FE:89:FD:D6:BA:75:6F:B7:EF:EA:E5:01:59:70:54:A4:EC:8C:D7:43
            X509v3 Authority Key Identifier: 
                keyid:91:C0:43:56:A0:8A:B1:25:6B:5E:4D:68:9D:A4:C4:D6:29:F0:C6:F1

    Signature Algorithm: sha256WithRSAEncryption
         1d:b1:30:f2:ad:60:8b:50:bf:60:ea:6b:e9:9b:64:71:e2:24:
         90:7c:3e:45:14:ba:d8:8f:9d:54:68:3f:4e:dc:fa:c1:91:ba:
         b3:2b:a4:98:19:34:99:b5:b0:83:a2:6e:04:3b:20:dc:61:ed:
         60:60:4e:fc:dc:94:70:92:b6:b3:0a:64:03:13:ce:76:48:f9:
         67:1a:af:7d:ab:91:e4:a6:3b:a9:16:fa:72:f4:b2:35:75:27:
         a3:02:9f:ef:79:95:d0:74:8c:1e:38:47:bf:08:b8:fb:23:d5:
         68:ac:30:a6:45:84:a6:9d:06:3f:14:c4:e4:e7:6d:2a:0e:1a:
         7e:c4:d5:da:de:01:34:aa:dd:09:bf:f3:4e:1d:91:a1:e0:f9:
         3b:10:7e:a6:6f:97:21:03:a1:ed:11:31:19:95:93:37:64:0c:
         82:c0:2a:ba:17:7d:90:79:d7:d9:a2:b7:92:3c:8e:7a:5d:96:
         6c:a7:ca:75:81:84:0c:2f:85:de:dc:80:53:13:1a:be:e1:e3:
         9d:c2:ab:95:f3:18:7c:9b:2d:5c:2b:b9:84:af:79:b7:a7:6d:
         a4:3a:13:f3:61:71:bb:fd:e9:c6:48:81:d2:fb:f1:c1:19:9d:
         8e:a6:93:db:ac:48:a6:4a:5f:88:60:c6:50:3a:d4:1a:78:1e:
         d0:14:3b:10
-----BEGIN CERTIFICATE-----
MIIDZjCCAk6gAwIBAgIBATANBgkqhkiG9w0BAQsFADBXMQswCQYDVQQGEwJVUzEO
MAwGA1UECAwFVW5zZXQxDjAMBgNVBAcMBVVuc2V0MQ4wDAYDVQQKDAVVbnNldDEY
MBYGA1UEAwwPd3d3LmV4YW1wbGUuY29tMB4XDTE0MTEyNjAxNTU1NloXDTI0MTEy
MzAxNTU1NlowRzELMAkGA1UEBhMCVVMxDjAMBgNVBAgMBVVuc2V0MQ4wDAYDVQQK
DAVVbnNldDEYMBYGA1UEAwwPd3d3LmV4YW1wbGUuY29tMIIBIjANBgkqhkiG9w0B
AQEFAAOCAQ8AMIIBCgKCAQEApNkvBEnUqMpeuM0IgiA7GJxUJ1td/dVpeZuEqiC2
JQgqsuAEwDFwIa9WZ8aAMjTSoh6TXMMky5UMVZ0nWha7HZN44tyxmC9yYG99NWuV
sEdw7xkSPMdHPAZIfZaMUzEIHgPyknqiUD6wqz4wc9kkW4zJD/MVp+zf7lZ8hi0W
Q/OWvMcF9mIFf3TaMKRe7SEmAbw04uQKEWZQdzdZYg0OmbIJitNOA5YL8emCugVU
scLTMN8mogHtQxmaeWxiP434kJzJLuZ51SrkP5F/1XG4lFGAx0KX9Cbw9KV6knmo
UYVbZZp/4hr/uo34AhaF16KemS5XJo2D3S+1cnoQ/DSjHQIDAQABo00wSzAJBgNV
HRMEAjAAMB0GA1UdDgQWBBT+if3WunVvt+/q5QFZcFSk7IzXQzAfBgNVHSMEGDAW
gBSRwENWoIqxJWteTWidpMTWKfDG8TANBgkqhkiG9w0BAQsFAAOCAQEAHbEw8q1g
i1C/YOpr6ZtkceIkkHw+RRS62I+dVGg/Ttz6wZG6syukmBk0mbWwg6JuBDsg3GHt
YGBO/NyUcJK2swpkAxPOdkj5ZxqvfauR5KY7qRb6cvSyNXUnowKf73mV0HSMHjhH
vwi4+yPVaKwwpkWEpp0GPxTE5OdtKg4afsTV2t4BNKrdCb/zTh2RoeD5OxB+pm+X
IQOh7RExGZWTN2QMgsAquhd9kHnX2aK3kjyOel2WbKfKdYGEDC+F3tyAUxMavuHj
ncKrlfMYfJstXCu5hK95t6dtpDoT82Fxu/3pxkiB0vvxwRmdjqaT26xIpkpfiGDG
UDrUGnge0BQ7EA==
-----END CERTIFICATE-----
