Certificate:
    Data:
        Version: 3 (0x2)
        Serial Number: 1 (0x1)
    Signature Algorithm: sha256WithRSAEncryption
        Issuer: C=US, ST=Unset, L=Unset, O=Unset, CN=www.example.com
        Validity
            Not Before: Nov 26 03:19:45 2014 GMT
            Not After : Nov 23 03:19:45 2024 GMT
        Subject: C=US, ST=Unset, O=Unset, CN=www.example.com
        Subject Public Key Info:
            Public Key Algorithm: rsaEncryption
                Public-Key: (2048 bit)
                Modulus:
                    00:cb:08:74:4c:59:63:bc:18:de:44:a1:5b:e9:d0:
                    27:2c:06:df:11:55:08:a5:d6:bb:20:6e:92:bb:f0:
                    e5:59:82:dc:87:bd:15:ed:33:82:f2:88:75:70:14:
                    bb:55:9d:d9:a7:09:0e:81:78:50:0c:c9:10:77:2e:
                    d3:39:db:4f:19:89:6d:23:b0:1c:2c:a9:6b:0a:59:
                    1c:44:09:b8:49:fb:8e:82:a4:ba:53:d1:35:68:b7:
                    08:3d:91:72:97:75:20:c7:78:0c:0a:66:bc:88:c6:
                    de:9b:6b:43:ae:c9:0e:68:15:82:be:08:a2:a9:3b:
                    72:fa:e1:4d:54:10:5c:ae:00:e0:6b:ca:92:da:08:
                    02:0c:dd:75:04:38:c5:42:a6:b3:20:bf:2e:3d:2f:
                    39:c9:96:a5:aa:19:2c:6e:71:aa:5e:f7:7f:26:e5:
                    fc:1f:06:5e:3c:8c:c9:82:d0:17:db:e5:95:dd:48:
                    50:1a:e2:28:9f:0b:85:29:22:7a:e3:cc:7f:f6:f4:
                    31:9c:dc:cc:dd:cc:7e:b8:73:4a:86:53:17:6f:e2:
                    63:f3:94:bf:9d:93:7e:a9:01:5c:f2:b3:7d:f8:52:
                    3d:04:bb:f8:e6:c6:8e:27:3e:8c:08:3b:5c:8e:33:
                    10:ed:8a:5d:d7:11:2c:ec:c8:66:d5:18:f5:68:d6:
                    e6:4f
                Exponent: 65537 (0x10001)
        X509v3 extensions:
            X509v3 Basic Constraints: 
                CA:FALSE
            X509v3 Subject Key Identifier: 
                A6:94:69:5E:DE:5C:45:53:58:D0:0C:0C:A2:BD:2A:C5:6E:1F:9D:D7
            X509v3 Authority Key Identifier: 
                keyid:C7:27:53:5F:EF:E4:BB:C4:2C:4A:D8:31:7E:86:20:C1:04:F1:B8:18

    Signature Algorithm: sha256WithRSAEncryption
         87:c5:25:0f:09:d8:0c:75:5c:2a:f0:47:03:38:82:88:c1:42:
         6f:de:ed:a1:cb:20:9a:7a:fe:1a:f4:48:07:2f:39:6a:9c:12:
         a5:f2:82:33:07:f7:cf:72:57:06:a2:da:88:04:9c:1b:d6:d1:
         b0:ca:58:f7:1f:74:e0:b5:a8:48:19:e1:79:69:32:c4:97:f2:
         ff:fe:e6:1f:20:ba:0b:0d:3a:3a:ee:e3:3e:9f:41:60:11:1c:
         4d:61:b0:5a:7f:85:b1:52:b0:5c:36:2d:29:59:e5:9f:5e:b0:
         e9:88:5a:6b:08:0a:0d:0a:75:f8:f0:89:2f:bc:c3:76:f7:14:
         36:63:91:6c:0b:c6:a4:ff:20:77:cd:dc:b1:ab:f1:1f:cf:07:
         27:5e:85:3b:d8:da:37:41:97:74:bc:09:34:88:68:17:a5:80:
         72:c3:e0:c3:4d:d3:b0:13:49:b1:30:5a:9c:50:78:a6:fc:aa:
         b7:6e:12:26:db:1b:65:78:a5:21:0d:34:f6:b7:86:e6:9f:b7:
         74:05:41:17:7b:5c:02:85:fe:43:9c:0d:37:16:d9:32:1a:61:
         6c:86:0b:4c:b1:2f:45:16:ad:d6:97:73:00:8a:67:f9:a9:29:
         85:f3:1a:41:97:ed:f1:84:03:0f:bd:4a:5e:62:d2:84:61:51:
         24:55:7f:e7
-----BEGIN CERTIFICATE-----
MIIDZjCCAk6gAwIBAgIBATANBgkqhkiG9w0BAQsFADBXMQswCQYDVQQGEwJVUzEO
MAwGA1UECAwFVW5zZXQxDjAMBgNVBAcMBVVuc2V0MQ4wDAYDVQQKDAVVbnNldDEY
MBYGA1UEAwwPd3d3LmV4YW1wbGUuY29tMB4XDTE0MTEyNjAzMTk0NVoXDTI0MTEy
MzAzMTk0NVowRzELMAkGA1UEBhMCVVMxDjAMBgNVBAgMBVVuc2V0MQ4wDAYDVQQK
DAVVbnNldDEYMBYGA1UEAwwPd3d3LmV4YW1wbGUuY29tMIIBIjANBgkqhkiG9w0B
AQEFAAOCAQ8AMIIBCgKCAQEAywh0TFljvBjeRKFb6dAnLAbfEVUIpda7IG6Su/Dl
WYLch70V7TOC8oh1cBS7VZ3ZpwkOgXhQDMkQdy7TOdtPGYltI7AcLKlrClkcRAm4
SfuOgqS6U9E1aLcIPZFyl3Ugx3gMCma8iMbem2tDrskOaBWCvgiiqTty+uFNVBBc
rgDga8qS2ggCDN11BDjFQqazIL8uPS85yZalqhksbnGqXvd/JuX8HwZePIzJgtAX
2+WV3UhQGuIonwuFKSJ648x/9vQxnNzM3cx+uHNKhlMXb+Jj85S/nZN+qQFc8rN9
+FI9BLv45saOJz6MCDtcjjMQ7Ypd1xEs7Mhm1Rj1aNbmTwIDAQABo00wSzAJBgNV
HRMEAjAAMB0GA1UdDgQWBBSmlGle3lxFU1jQDAyivSrFbh+d1zAfBgNVHSMEGDAW
gBTHJ1Nf7+S7xCxK2DF+hiDBBPG4GDANBgkqhkiG9w0BAQsFAAOCAQEAh8UlDwnY
DHVcKvBHAziCiMFCb97tocsgmnr+GvRIBy85apwSpfKCMwf3z3JXBqLaiAScG9bR
sMpY9x904LWoSBnheWkyxJfy//7mHyC6Cw06Ou7jPp9BYBEcTWGwWn+FsVKwXDYt
KVnln16w6YhaawgKDQp1+PCJL7zDdvcUNmORbAvGpP8gd83csavxH88HJ16FO9ja
N0GXdLwJNIhoF6WAcsPgw03TsBNJsTBanFB4pvyqt24SJtsbZXilIQ009reG5p+3
dAVBF3tcAoX+Q5wNNxbZMhphbIYLTLEvRRat1pdzAIpn+akphfMaQZft8YQDD71K
XmLShGFRJFV/5w==
-----END CERTIFICATE-----
