Certificate:
    Data:
        Version: 3 (0x2)
        Serial Number: 1 (0x1)
    Signature Algorithm: sha1WithRSAEncryption
        Issuer: C=US, ST=Unset, L=Unset, O=Unset, CN=www.example.com
        Validity
            Not Before: Oct 11 21:02:27 2014 GMT
            Not After : Oct  8 21:02:27 2024 GMT
        Subject: C=US, ST=Unset, O=Unset, CN=www.example.com
        Subject Public Key Info:
            Public Key Algorithm: rsaEncryption
                Public-Key: (2048 bit)
                Modulus:
                    00:e8:7f:50:aa:a9:c2:57:03:ac:8d:67:e1:e3:a4:
                    ad:33:9f:87:72:19:f3:f9:a3:75:2e:0b:a2:c4:8c:
                    92:f9:00:58:9f:07:af:98:04:a4:9a:3a:d8:c7:78:
                    c2:88:1d:19:e9:d9:de:26:3b:64:53:44:65:03:16:
                    54:1d:14:1b:40:cb:9a:2d:38:de:61:45:a8:a9:07:
                    83:1c:1b:8f:3a:00:72:22:1f:0e:af:4e:43:26:9a:
                    ce:77:f5:86:1e:63:09:75:a0:bb:87:14:51:0b:45:
                    ad:08:8d:fa:93:78:60:64:f0:32:c6:fe:34:03:68:
                    2c:47:e0:6a:15:7c:d5:6e:43:12:2f:33:e2:20:e2:
                    fb:48:df:df:18:9b:52:8c:ed:51:9e:4c:82:77:b6:
                    36:c9:eb:54:40:79:41:41:95:b8:69:e4:83:ee:27:
                    72:64:fb:30:e0:ca:c1:f4:38:1d:69:9a:3a:40:34:
                    a6:0a:44:c6:f7:94:48:1f:8c:2f:db:fe:97:1b:32:
                    b7:05:ae:e1:b2:99:f4:ee:42:96:1e:e7:9a:2c:f7:
                    b6:40:1f:22:4f:1b:da:0d:03:9e:d4:1b:c5:b5:b1:
                    6e:21:d7:09:ae:8a:01:1a:11:ab:c4:98:4d:71:27:
                    f3:17:3b:e6:62:cf:28:39:a2:8e:6e:99:fb:b6:be:
                    84:f5
                Exponent: 65537 (0x10001)
        X509v3 extensions:
            X509v3 Basic Constraints: 
                CA:FALSE
            X509v3 Subject Key Identifier: 
                3C:42:D1:B1:06:AA:DE:4B:B0:04:ED:17:70:B9:6B:22:C4:B0:95:39
            X509v3 Authority Key Identifier: 
                keyid:73:32:D6:33:F1:55:C0:7B:7E:6F:A9:9F:55:94:20:E2:1E:12:78:8E

    Signature Algorithm: sha1WithRSAEncryption
         66:90:5d:06:78:8e:22:34:58:a5:44:69:24:70:ad:ac:bf:8d:
         81:90:3e:e3:b0:b5:69:ab:7f:e0:1e:bc:23:42:50:13:78:f7:
         52:90:89:19:61:58:99:db:13:ba:d1:d9:87:99:7a:68:74:64:
         bb:bc:08:4d:19:2e:e9:d9:78:2a:0c:46:2d:ed:8c:b3:7a:15:
         ed:08:f3:6e:1a:41:c6:05:11:5f:97:bb:2d:f0:2c:71:98:28:
         9b:7d:f7:9f:c9:3e:6a:09:85:fb:db:28:52:18:2b:00:0f:e1:
         60:97:43:19:f9:6b:a0:05:a5:04:10:9c:b2:6f:5c:40:11:3c:
         da:de:ca:ac:df:da:80:7e:90:c1:86:78:71:99:7e:91:56:b8:
         8c:7f:d5:59:f4:2d:06:d4:7b:5a:b4:76:45:f7:41:eb:0d:a8:
         e3:1c:c8:74:0a:9f:e4:48:3d:7b:70:01:cc:00:70:6c:80:75:
         c8:a6:19:9f:06:3e:26:e0:19:6d:6c:77:7a:a1:02:13:6f:89:
         51:c8:70:38:38:34:4d:d9:04:ab:20:08:6c:1b:3f:87:7a:0a:
         54:fa:99:ed:eb:bf:32:65:5f:18:03:d1:da:91:d1:87:3b:18:
         76:d2:e5:86:ea:c0:06:4a:c5:99:e6:c6:d5:17:9a:a9:6d:5e:
         ba:55:f3:69
-----BEGIN CERTIFICATE-----
MIIDZjCCAk6gAwIBAgIBATANBgkqhkiG9w0BAQUFADBXMQswCQYDVQQGEwJVUzEO
MAwGA1UECAwFVW5zZXQxDjAMBgNVBAcMBVVuc2V0MQ4wDAYDVQQKDAVVbnNldDEY
MBYGA1UEAwwPd3d3LmV4YW1wbGUuY29tMB4XDTE0MTAxMTIxMDIyN1oXDTI0MTAw
ODIxMDIyN1owRzELMAkGA1UEBhMCVVMxDjAMBgNVBAgMBVVuc2V0MQ4wDAYDVQQK
DAVVbnNldDEYMBYGA1UEAwwPd3d3LmV4YW1wbGUuY29tMIIBIjANBgkqhkiG9w0B
AQEFAAOCAQ8AMIIBCgKCAQEA6H9QqqnCVwOsjWfh46StM5+Hchnz+aN1LguixIyS
+QBYnwevmASkmjrYx3jCiB0Z6dneJjtkU0RlAxZUHRQbQMuaLTjeYUWoqQeDHBuP
OgByIh8Or05DJprOd/WGHmMJdaC7hxRRC0WtCI36k3hgZPAyxv40A2gsR+BqFXzV
bkMSLzPiIOL7SN/fGJtSjO1RnkyCd7Y2yetUQHlBQZW4aeSD7idyZPsw4MrB9Dgd
aZo6QDSmCkTG95RIH4wv2/6XGzK3Ba7hspn07kKWHueaLPe2QB8iTxvaDQOe1BvF
tbFuIdcJrooBGhGrxJhNcSfzFzvmYs8oOaKObpn7tr6E9QIDAQABo00wSzAJBgNV
HRMEAjAAMB0GA1UdDgQWBBQ8QtGxBqreS7AE7RdwuWsixLCVOTAfBgNVHSMEGDAW
gBRzMtYz8VXAe35vqZ9VlCDiHhJ4jjANBgkqhkiG9w0BAQUFAAOCAQEAZpBdBniO
IjRYpURpJHCtrL+NgZA+47C1aat/4B68I0JQE3j3UpCJGWFYmdsTutHZh5l6aHRk
u7wITRku6dl4KgxGLe2Ms3oV7QjzbhpBxgURX5e7LfAscZgom333n8k+agmF+9so
UhgrAA/hYJdDGflroAWlBBCcsm9cQBE82t7KrN/agH6QwYZ4cZl+kVa4jH/VWfQt
BtR7WrR2RfdB6w2o4xzIdAqf5Eg9e3ABzABwbIB1yKYZnwY+JuAZbWx3eqECE2+J
UchwODg0TdkEqyAIbBs/h3oKVPqZ7eu/MmVfGAPR2pHRhzsYdtLlhurABkrFmebG
1ReaqW1eulXzaQ==
-----END CERTIFICATE-----
