Certificate:
    Data:
        Version: 3 (0x2)
        Serial Number: 1 (0x1)
    Signature Algorithm: sha256WithRSAEncryption
        Issuer: C=US, ST=Unset, L=Unset, O=Unset, CN=www.example.com
        Validity
            Not Before: Nov 26 04:33:49 2014 GMT
            Not After : Nov 23 04:33:49 2024 GMT
        Subject: C=US, ST=Unset, O=Unset, CN=www.example.com
        Subject Public Key Info:
            Public Key Algorithm: rsaEncryption
                Public-Key: (2048 bit)
                Modulus:
                    00:b3:f7:9c:b1:cd:45:7f:0a:f8:a5:1e:47:3b:bd:
                    0d:30:25:06:c3:4d:42:93:f7:bb:ba:21:b8:bb:06:
                    3d:7e:bc:48:06:6c:a6:4a:4f:df:f7:91:d1:75:2e:
                    62:65:7a:89:71:76:c5:85:42:d2:a3:10:ef:87:0b:
                    4c:13:8d:c5:79:34:89:67:d2:c4:cb:c3:c5:2e:31:
                    a9:ae:89:df:00:4b:e3:59:94:57:55:77:0c:ff:fe:
                    61:d6:f4:3b:5e:4f:03:c4:5f:fe:0c:d8:ad:84:cf:
                    d2:41:3e:ba:a9:21:fe:7b:86:24:c7:d9:ba:9c:cb:
                    47:92:62:46:2a:4b:b6:1d:64:bd:8c:21:dd:10:6c:
                    f8:15:e6:6a:6f:36:fb:b7:3d:9e:87:27:f7:2c:57:
                    21:d6:34:b3:75:da:bc:24:7f:cc:28:37:d1:6c:e1:
                    85:48:6c:ef:05:3d:1a:7e:9e:eb:bd:19:70:5f:59:
                    6e:f1:1b:f3:af:ec:0e:02:79:81:d6:bd:76:5e:3e:
                    15:9a:78:d6:e1:11:20:7f:db:ba:a5:5c:6d:04:f4:
                    6c:c5:5f:44:a6:13:ba:a5:fb:32:f8:72:69:7f:77:
                    40:07:ae:62:cd:52:c4:37:c1:77:0b:16:bd:c9:04:
                    bb:02:fd:20:19:c6:d8:82:88:55:23:b5:5a:2b:b9:
                    46:4b
                Exponent: 65537 (0x10001)
        X509v3 extensions:
            X509v3 Basic Constraints: 
                CA:FALSE
            X509v3 Subject Key Identifier: 
                56:A2:03:5D:E7:BF:36:A0:A8:4E:2A:49:6C:05:09:4B:1C:63:1C:2C
            X509v3 Authority Key Identifier: 
                keyid:E2:DE:81:F2:D6:0D:33:11:E8:F2:FD:7B:E7:63:78:62:2E:9B:A4:26

    Signature Algorithm: sha256WithRSAEncryption
         6c:29:24:9c:73:c5:ab:9a:7c:1c:be:67:62:a0:4c:9a:d3:a6:
         ae:ca:6e:06:62:c2:e6:88:ea:4c:88:64:87:dc:b7:d2:b8:bd:
         50:ee:7d:05:52:c0:8d:03:1a:71:b3:3a:dd:66:7c:c0:af:a6:
         fe:d1:c9:c1:f5:e7:5b:4e:d9:1e:15:80:9a:22:2e:2b:74:71:
         c6:46:22:a0:d2:5d:da:97:c8:42:0e:8c:46:dc:e9:fa:f5:ea:
         45:92:fc:07:52:bb:58:6c:f8:73:b3:3b:b0:26:06:29:87:fe:
         52:58:49:78:c2:f7:a8:6c:73:1f:4a:50:18:0d:dc:cc:6b:76:
         05:c4:6d:20:40:9a:e2:71:5c:bc:a2:db:86:6a:58:cb:76:d8:
         1e:72:04:ca:26:48:22:67:93:64:88:1f:70:93:92:b0:6c:ed:
         86:c3:2f:63:3d:b8:f7:d4:a5:fc:87:a5:13:d0:40:67:11:69:
         2f:43:4c:dc:16:26:0b:8c:33:d2:7b:6d:7f:24:6f:ae:5f:b1:
         0e:16:10:61:9f:cf:82:73:54:59:c4:64:ad:5b:fb:12:36:fe:
         97:13:c8:c9:7c:6b:63:8b:17:30:97:b0:15:a6:63:14:81:64:
         d3:8a:39:9a:93:f9:13:13:01:84:b4:d3:cc:9f:47:f6:0a:7d:
         88:af:68:a3
-----BEGIN CERTIFICATE-----
MIIDZjCCAk6gAwIBAgIBATANBgkqhkiG9w0BAQsFADBXMQswCQYDVQQGEwJVUzEO
MAwGA1UECAwFVW5zZXQxDjAMBgNVBAcMBVVuc2V0MQ4wDAYDVQQKDAVVbnNldDEY
MBYGA1UEAwwPd3d3LmV4YW1wbGUuY29tMB4XDTE0MTEyNjA0MzM0OVoXDTI0MTEy
MzA0MzM0OVowRzELMAkGA1UEBhMCVVMxDjAMBgNVBAgMBVVuc2V0MQ4wDAYDVQQK
DAVVbnNldDEYMBYGA1UEAwwPd3d3LmV4YW1wbGUuY29tMIIBIjANBgkqhkiG9w0B
AQEFAAOCAQ8AMIIBCgKCAQEAs/ecsc1Ffwr4pR5HO70NMCUGw01Ck/e7uiG4uwY9
frxIBmymSk/f95HRdS5iZXqJcXbFhULSoxDvhwtME43FeTSJZ9LEy8PFLjGpronf
AEvjWZRXVXcM//5h1vQ7Xk8DxF/+DNithM/SQT66qSH+e4Ykx9m6nMtHkmJGKku2
HWS9jCHdEGz4FeZqbzb7tz2ehyf3LFch1jSzddq8JH/MKDfRbOGFSGzvBT0afp7r
vRlwX1lu8Rvzr+wOAnmB1r12Xj4VmnjW4REgf9u6pVxtBPRsxV9EphO6pfsy+HJp
f3dAB65izVLEN8F3Cxa9yQS7Av0gGcbYgohVI7VaK7lGSwIDAQABo00wSzAJBgNV
HRMEAjAAMB0GA1UdDgQWBBRWogNd5782oKhOKklsBQlLHGMcLDAfBgNVHSMEGDAW
gBTi3oHy1g0zEejy/XvnY3hiLpukJjANBgkqhkiG9w0BAQsFAAOCAQEAbCkknHPF
q5p8HL5nYqBMmtOmrspuBmLC5ojqTIhkh9y30ri9UO59BVLAjQMacbM63WZ8wK+m
/tHJwfXnW07ZHhWAmiIuK3RxxkYioNJd2pfIQg6MRtzp+vXqRZL8B1K7WGz4c7M7
sCYGKYf+UlhJeML3qGxzH0pQGA3czGt2BcRtIECa4nFcvKLbhmpYy3bYHnIEyiZI
ImeTZIgfcJOSsGzthsMvYz2499Sl/IelE9BAZxFpL0NM3BYmC4wz0nttfyRvrl+x
DhYQYZ/PgnNUWcRkrVv7Ejb+lxPIyXxrY4sXMJewFaZjFIFk04o5mpP5ExMBhLTT
zJ9H9gp9iK9oow==
-----END CERTIFICATE-----
